---
triple:          'arm64-apple-darwin'
binary-path:     tests_asan
relocations:
  - { offset: 0x3B, size: 0x8, addend: 0x0, symName: _.str, symObjAddr: 0x19B80, symBinAddr: 0x100057180, symSize: 0x0 }
  - { offset: 0x6B, size: 0x8, addend: 0x0, symName: _.str.1, symObjAddr: 0x19BA0, symBinAddr: 0x1000571A0, symSize: 0x0 }
  - { offset: 0x7C, size: 0x8, addend: 0x0, symName: _.str.3, symObjAddr: 0x19BC0, symBinAddr: 0x1000571C0, symSize: 0x0 }
  - { offset: 0x8D, size: 0x8, addend: 0x0, symName: _.str.4, symObjAddr: 0x19BE0, symBinAddr: 0x1000571E0, symSize: 0x0 }
  - { offset: 0x9E, size: 0x8, addend: 0x0, symName: _.str.5, symObjAddr: 0x19C00, symBinAddr: 0x100057200, symSize: 0x0 }
  - { offset: 0xAF, size: 0x8, addend: 0x0, symName: _.str.6, symObjAddr: 0x19C20, symBinAddr: 0x100057220, symSize: 0x0 }
  - { offset: 0xC0, size: 0x8, addend: 0x0, symName: _.str.7, symObjAddr: 0x19C40, symBinAddr: 0x100057240, symSize: 0x0 }
  - { offset: 0xD1, size: 0x8, addend: 0x0, symName: _.str.8, symObjAddr: 0x19C60, symBinAddr: 0x100057260, symSize: 0x0 }
  - { offset: 0xE2, size: 0x8, addend: 0x0, symName: _.str.9, symObjAddr: 0x19C80, symBinAddr: 0x100057280, symSize: 0x0 }
  - { offset: 0xF3, size: 0x8, addend: 0x0, symName: _.str.10, symObjAddr: 0x19CA0, symBinAddr: 0x1000572A0, symSize: 0x0 }
  - { offset: 0x104, size: 0x8, addend: 0x0, symName: _.str.11, symObjAddr: 0x19CC0, symBinAddr: 0x1000572C0, symSize: 0x0 }
  - { offset: 0x115, size: 0x8, addend: 0x0, symName: _.str.12, symObjAddr: 0x19CE0, symBinAddr: 0x1000572E0, symSize: 0x0 }
  - { offset: 0x126, size: 0x8, addend: 0x0, symName: _.str.13, symObjAddr: 0x19D00, symBinAddr: 0x100057300, symSize: 0x0 }
  - { offset: 0x137, size: 0x8, addend: 0x0, symName: _.str.14, symObjAddr: 0x19D20, symBinAddr: 0x100057320, symSize: 0x0 }
  - { offset: 0x154, size: 0x8, addend: 0x0, symName: _.str.15, symObjAddr: 0x19D40, symBinAddr: 0x100057340, symSize: 0x0 }
  - { offset: 0x165, size: 0x8, addend: 0x0, symName: _.str.16, symObjAddr: 0x19D60, symBinAddr: 0x100057360, symSize: 0x0 }
  - { offset: 0x176, size: 0x8, addend: 0x0, symName: _.str.17, symObjAddr: 0x19D80, symBinAddr: 0x100057380, symSize: 0x0 }
  - { offset: 0x187, size: 0x8, addend: 0x0, symName: _.str.18, symObjAddr: 0x19DA0, symBinAddr: 0x1000573A0, symSize: 0x0 }
  - { offset: 0x1A4, size: 0x8, addend: 0x0, symName: _.str.19, symObjAddr: 0x19DE0, symBinAddr: 0x1000573E0, symSize: 0x0 }
  - { offset: 0x1B6, size: 0x8, addend: 0x0, symName: _.str.29, symObjAddr: 0x19E00, symBinAddr: 0x100057400, symSize: 0x0 }
  - { offset: 0x4C6A, size: 0x8, addend: 0x0, symName: __ZNSt3__17advanceB8ne180100IPNS_12basic_stringIcNS_11char_traitsIcEENS_9allocatorIcEEEEllvEEvRT_T0_, symObjAddr: 0xBD4C, symBinAddr: 0x10000DE90, symSize: 0x80 }
  - { offset: 0x4CD5, size: 0x8, addend: 0x0, symName: __ZNSt3__124__put_character_sequenceB8ne180100IcNS_11char_traitsIcEEEERNS_13basic_ostreamIT_T0_EES7_PKS4_m, symObjAddr: 0xEE74, symBinAddr: 0x100010FB8, symSize: 0x1148 }
  - { offset: 0x5F4E, size: 0x8, addend: 0x0, symName: __ZNSt3__1eqB8ne180100INS_9allocatorIcEEEEbRKNS_12basic_stringIcNS_11char_traitsIcEET_EES9_, symObjAddr: 0x190C, symBinAddr: 0x100003A50, symSize: 0x454 }
  - { offset: 0x5FC1, size: 0x8, addend: 0x0, symName: __ZNSt3__1lsB8ne180100INS_11char_traitsIcEEEERNS_13basic_ostreamIcT_EES6_PKc, symObjAddr: 0x1F34, symBinAddr: 0x100004078, symSize: 0xD0 }
  - { offset: 0x6007, size: 0x8, addend: 0x0, symName: __ZNSt3__1lsB8ne180100IcNS_11char_traitsIcEENS_9allocatorIcEEEERNS_13basic_ostreamIT_T0_EES9_RKNS_12basic_stringIS6_S7_T1_EE, symObjAddr: 0x3B84, symBinAddr: 0x100005CC8, symSize: 0x12C }
  - { offset: 0x605F, size: 0x8, addend: 0x0, symName: __ZNSt3__1plB8ne180100IcNS_11char_traitsIcEENS_9allocatorIcEEEENS_12basic_stringIT_T0_T1_EEOS9_SA_, symObjAddr: 0x3CB0, symBinAddr: 0x100005DF4, symSize: 0x13C }
  - { offset: 0x60B7, size: 0x8, addend: 0x0, symName: __ZNSt3__1plB8ne180100IcNS_11char_traitsIcEENS_9allocatorIcEEEENS_12basic_stringIT_T0_T1_EEOS9_PKS6_, symObjAddr: 0x3DEC, symBinAddr: 0x100005F30, symSize: 0xF4 }
  - { offset: 0x610F, size: 0x8, addend: 0x0, symName: __ZNSt3__118__constexpr_strlenB8ne180100EPKc, symObjAddr: 0x44D4, symBinAddr: 0x100006618, symSize: 0x24 }
  - { offset: 0x613B, size: 0x8, addend: 0x0, symName: __ZNSt3__122__make_exception_guardB8ne180100INS_6vectorINS_12basic_stringIcNS_11char_traitsIcEENS_9allocatorIcEEEENS5_IS7_EEE16__destroy_vectorEEENS_28__exception_guard_exceptionsIT_EESC_, symObjAddr: 0x4B78, symBinAddr: 0x100006CBC, symSize: 0x2AC }
  - { offset: 0x6174, size: 0x8, addend: 0x0, symName: __ZNSt3__119__allocate_at_leastB8ne180100INS_9allocatorINS_12basic_stringIcNS_11char_traitsIcEENS1_IcEEEEEEEENS_19__allocation_resultINS_16allocator_traitsIT_E7pointerEEERSA_m, symObjAddr: 0x6BC4, symBinAddr: 0x100008D08, symSize: 0x284 }
  - { offset: 0x61B9, size: 0x8, addend: 0x0, symName: __ZNSt3__13minB8ne180100ImEERKT_S3_S3_, symObjAddr: 0x7294, symBinAddr: 0x1000093D8, symSize: 0x104 }
  - { offset: 0x63E6, size: 0x8, addend: 0x0, symName: __ZNSt3__13minB8ne180100ImNS_6__lessIvvEEEERKT_S5_S5_T0_, symObjAddr: 0x74E4, symBinAddr: 0x100009628, symSize: 0x2B8 }
  - { offset: 0x6677, size: 0x8, addend: 0x0, symName: __ZNSt3__120__throw_length_errorB8ne180100EPKc, symObjAddr: 0x7A28, symBinAddr: 0x100009B6C, symSize: 0xB4 }
  - { offset: 0x669F, size: 0x8, addend: 0x0, symName: __ZNSt3__117__libcpp_allocateB8ne180100Emm, symObjAddr: 0x7DC8, symBinAddr: 0x100009F0C, symSize: 0x60 }
  - { offset: 0x66F9, size: 0x8, addend: 0x0, symName: __ZNSt3__124__is_overaligned_for_newB8ne180100Em, symObjAddr: 0x7E28, symBinAddr: 0x100009F6C, symSize: 0x20 }
  - { offset: 0x6727, size: 0x8, addend: 0x0, symName: __ZNSt3__121__libcpp_operator_newB8ne180100IJmSt11align_val_tEEEPvDpT_, symObjAddr: 0x7E48, symBinAddr: 0x100009F8C, symSize: 0x6C }
  - { offset: 0x6774, size: 0x8, addend: 0x0, symName: __ZNSt3__121__libcpp_operator_newB8ne180100IJmEEEPvDpT_, symObjAddr: 0x7EB4, symBinAddr: 0x100009FF8, symSize: 0x24 }
  - { offset: 0x67AD, size: 0x8, addend: 0x0, symName: __ZNSt3__112__to_addressB8ne180100INS_12basic_stringIcNS_11char_traitsIcEENS_9allocatorIcEEEEEEPT_S8_, symObjAddr: 0x85C0, symBinAddr: 0x10000A704, symSize: 0x14 }
  - { offset: 0x67E2, size: 0x8, addend: 0x0, symName: __ZNSt3__130__uninitialized_allocator_copyB8ne180100INS_9allocatorINS_12basic_stringIcNS_11char_traitsIcEENS1_IcEEEEEEPKS6_S9_PS6_EET2_RT_T0_T1_SB_, symObjAddr: 0x892C, symBinAddr: 0x10000AA70, symSize: 0x32C }
  - { offset: 0x6888, size: 0x8, addend: 0x0, symName: __ZNSt3__114__unwrap_rangeB8ne180100IPKNS_12basic_stringIcNS_11char_traitsIcEENS_9allocatorIcEEEES8_EEDaT_T0_, symObjAddr: 0x940C, symBinAddr: 0x10000B550, symSize: 0x21C }
  - { offset: 0x68D6, size: 0x8, addend: 0x0, symName: __ZNSt3__135__uninitialized_allocator_copy_implB8ne180100INS_9allocatorINS_12basic_stringIcNS_11char_traitsIcEENS1_IcEEEEEEPKS6_S9_PS6_EET2_RT_T0_T1_SB_, symObjAddr: 0x9628, symBinAddr: 0x10000B76C, symSize: 0x728 }
  - { offset: 0x6982, size: 0x8, addend: 0x0, symName: __ZNSt3__113__unwrap_iterB8ne180100IPNS_12basic_stringIcNS_11char_traitsIcEENS_9allocatorIcEEEENS_18__unwrap_iter_implIS7_Lb1EEELi0EEEDTclsrT0_8__unwrapclsr3stdE7declvalIT_EEEESB_, symObjAddr: 0x9D50, symBinAddr: 0x10000BE94, symSize: 0x24 }
  - { offset: 0x69C6, size: 0x8, addend: 0x0, symName: __ZNSt3__113__rewrap_iterB8ne180100IPNS_12basic_stringIcNS_11char_traitsIcEENS_9allocatorIcEEEES7_NS_18__unwrap_iter_implIS7_Lb1EEEEET_SA_T0_, symObjAddr: 0x9D74, symBinAddr: 0x10000BEB8, symSize: 0x48 }
  - { offset: 0x6B1D, size: 0x8, addend: 0x0, symName: __ZNSt3__113__unwrap_iterB8ne180100IPKNS_12basic_stringIcNS_11char_traitsIcEENS_9allocatorIcEEEENS_18__unwrap_iter_implIS8_Lb1EEELi0EEEDTclsrT0_8__unwrapclsr3stdE7declvalIT_EEEESC_, symObjAddr: 0xA0B8, symBinAddr: 0x10000C1FC, symSize: 0x24 }
  - { offset: 0x6BB4, size: 0x8, addend: 0x0, symName: __ZNSt3__112__to_addressB8ne180100IKNS_12basic_stringIcNS_11char_traitsIcEENS_9allocatorIcEEEEEEPT_S9_, symObjAddr: 0xA188, symBinAddr: 0x10000C2CC, symSize: 0x14 }
  - { offset: 0x6BE9, size: 0x8, addend: 0x0, symName: __ZNSt3__122__make_exception_guardB8ne180100INS_29_AllocatorDestroyRangeReverseINS_9allocatorINS_12basic_stringIcNS_11char_traitsIcEENS2_IcEEEEEEPS7_EEEENS_28__exception_guard_exceptionsIT_EESC_, symObjAddr: 0xA3AC, symBinAddr: 0x10000C4F0, symSize: 0x22C }
  - { offset: 0x6C20, size: 0x8, addend: 0x0, symName: __ZNSt3__114__construct_atB8ne180100INS_12basic_stringIcNS_11char_traitsIcEENS_9allocatorIcEEEEJRKS6_EPS6_EEPT_SB_DpOT0_, symObjAddr: 0xABC0, symBinAddr: 0x10000CD04, symSize: 0x7C }
  - { offset: 0x6C73, size: 0x8, addend: 0x0, symName: __ZNSt3__112construct_atB8ne180100INS_12basic_stringIcNS_11char_traitsIcEENS_9allocatorIcEEEEJRKS6_EPS6_EEPT_SB_DpOT0_, symObjAddr: 0xAC3C, symBinAddr: 0x10000CD80, symSize: 0xC0 }
  - { offset: 0x6CC6, size: 0x8, addend: 0x0, symName: __ZNSt3__119__allocator_destroyB8ne180100INS_9allocatorINS_12basic_stringIcNS_11char_traitsIcEENS1_IcEEEEEENS_16reverse_iteratorIPS6_EESA_EEvRT_T0_T1_, symObjAddr: 0xB274, symBinAddr: 0x10000D3B8, symSize: 0x2CC }
  - { offset: 0x6D32, size: 0x8, addend: 0x0, symName: __ZNSt3__1neB8ne180100IPNS_12basic_stringIcNS_11char_traitsIcEENS_9allocatorIcEEEES7_EEbRKNS_16reverse_iteratorIT_EERKNS8_IT0_EE, symObjAddr: 0xB5C0, symBinAddr: 0x10000D704, symSize: 0x9C }
  - { offset: 0x6D7E, size: 0x8, addend: 0x0, symName: __ZNSt3__112__to_addressB8ne180100INS_16reverse_iteratorIPNS_12basic_stringIcNS_11char_traitsIcEENS_9allocatorIcEEEEEEvEEu7__decayIDTclsr19__to_address_helperIT_EE6__callclsr3stdE7declvalIRKSA_EEEEESC_, symObjAddr: 0xB684, symBinAddr: 0x10000D7C8, symSize: 0x6C }
  - { offset: 0x6DB4, size: 0x8, addend: 0x0, symName: __ZNSt3__112__destroy_atB8ne180100INS_12basic_stringIcNS_11char_traitsIcEENS_9allocatorIcEEEELi0EEEvPT_, symObjAddr: 0xB950, symBinAddr: 0x10000DA94, symSize: 0x6C }
  - { offset: 0x6E14, size: 0x8, addend: 0x0, symName: __ZNSt3__14prevB8ne180100IPNS_12basic_stringIcNS_11char_traitsIcEENS_9allocatorIcEEEELi0EEET_S8_NS_15iterator_traitsIS8_E15difference_typeE, symObjAddr: 0xBAE4, symBinAddr: 0x10000DC28, symSize: 0x268 }
  - { offset: 0x6E62, size: 0x8, addend: 0x0, symName: __ZNSt3__121__convert_to_integralB8ne180100El, symObjAddr: 0xBDCC, symBinAddr: 0x10000DF10, symSize: 0x14 }
  - { offset: 0x6E8E, size: 0x8, addend: 0x0, symName: __ZNSt3__19__advanceB8ne180100IPNS_12basic_stringIcNS_11char_traitsIcEENS_9allocatorIcEEEEEEvRT_NS_15iterator_traitsIS8_E15difference_typeENS_26random_access_iterator_tagE, symObjAddr: 0xBDE0, symBinAddr: 0x10000DF24, symSize: 0x1A4 }
  - { offset: 0x6F2A, size: 0x8, addend: 0x0, symName: __ZNSt3__119__libcpp_deallocateB8ne180100EPvmm, symObjAddr: 0xD378, symBinAddr: 0x10000F4BC, symSize: 0x60 }
  - { offset: 0x6F8F, size: 0x8, addend: 0x0, symName: __ZNSt3__127__do_deallocate_handle_sizeB8ne180100IJSt11align_val_tEEEvPvmDpT_, symObjAddr: 0xD3D8, symBinAddr: 0x10000F51C, symSize: 0x30 }
  - { offset: 0x6FE2, size: 0x8, addend: 0x0, symName: __ZNSt3__127__do_deallocate_handle_sizeB8ne180100IJEEEvPvmDpT_, symObjAddr: 0xD408, symBinAddr: 0x10000F54C, symSize: 0x28 }
  - { offset: 0x7020, size: 0x8, addend: 0x0, symName: __ZNSt3__124__libcpp_operator_deleteB8ne180100IJPvSt11align_val_tEEEvDpT_, symObjAddr: 0xD430, symBinAddr: 0x10000F574, symSize: 0x2C }
  - { offset: 0x7069, size: 0x8, addend: 0x0, symName: __ZNSt3__124__libcpp_operator_deleteB8ne180100IJPvEEEvDpT_, symObjAddr: 0xD45C, symBinAddr: 0x10000F5A0, symSize: 0x24 }
  - { offset: 0x709E, size: 0x8, addend: 0x0, symName: __ZNSt3__112__to_addressB8ne180100IKcEEPT_S3_, symObjAddr: 0xDD90, symBinAddr: 0x10000FED4, symSize: 0x14 }
  - { offset: 0x7106, size: 0x8, addend: 0x0, symName: __ZNSt3__116__pad_and_outputB8ne180100IcNS_11char_traitsIcEEEENS_19ostreambuf_iteratorIT_T0_EES6_PKS4_S8_S8_RNS_8ios_baseES4_, symObjAddr: 0x100C0, symBinAddr: 0x100012204, symSize: 0xBFC }
  - { offset: 0x71E3, size: 0x8, addend: 0x0, symName: __ZNSt3__112__to_addressB8ne180100IcEEPT_S2_, symObjAddr: 0x11C40, symBinAddr: 0x100013D84, symSize: 0x14 }
  - { offset: 0x7218, size: 0x8, addend: 0x0, symName: __ZNSt3__19use_facetB8ne180100INS_5ctypeIcEEEERKT_RKNS_6localeE, symObjAddr: 0x12AD8, symBinAddr: 0x100014C1C, symSize: 0x188 }
  - { offset: 0x8566, size: 0x8, addend: 0x0, symName: __ZSt28__throw_bad_array_new_lengthB8ne180100v, symObjAddr: 0x7D4C, symBinAddr: 0x100009E90, symSize: 0x7C }
  - { offset: 0x8C8D, size: 0x8, addend: 0x0, symName: __ZN4CardC2ENSt3__112basic_stringIcNS0_11char_traitsIcEENS0_9allocatorIcEEEES6_, symObjAddr: 0x0, symBinAddr: 0x100002144, symSize: 0x1500 }
  - { offset: 0x8D0F, size: 0x8, addend: 0x0, symName: __ZNSt3__112basic_stringIcNS_11char_traitsIcEENS_9allocatorIcEEEC1B8ne180100ILi0EEEPKc, symObjAddr: 0x1500, symBinAddr: 0x100003644, symSize: 0x80 }
  - { offset: 0x8D4D, size: 0x8, addend: 0x0, symName: __ZNSt3__16vectorINS_12basic_stringIcNS_11char_traitsIcEENS_9allocatorIcEEEENS4_IS6_EEEC1B8ne180100ESt16initializer_listIS6_E, symObjAddr: 0x1580, symBinAddr: 0x1000036C4, symSize: 0x294 }
  - { offset: 0x8D8C, size: 0x8, addend: 0x0, symName: __ZNKSt3__16vectorINS_12basic_stringIcNS_11char_traitsIcEENS_9allocatorIcEEEENS4_IS6_EEE4sizeB8ne180100Ev, symObjAddr: 0x1814, symBinAddr: 0x100003958, symSize: 0xF8 }
  - { offset: 0x8DB1, size: 0x8, addend: 0x0, symName: __ZNSt3__16vectorINS_12basic_stringIcNS_11char_traitsIcEENS_9allocatorIcEEEENS4_IS6_EEEixB8ne180100Em, symObjAddr: 0x1D60, symBinAddr: 0x100003EA4, symSize: 0x1D4 }
  - { offset: 0x8DE6, size: 0x8, addend: 0x0, symName: __ZNSt3__16vectorINS_12basic_stringIcNS_11char_traitsIcEENS_9allocatorIcEEEENS4_IS6_EEED1B8ne180100Ev, symObjAddr: 0x2004, symBinAddr: 0x100004148, symSize: 0x78 }
  - { offset: 0x8E0E, size: 0x8, addend: 0x0, symName: __ZN4CardC1ENSt3__112basic_stringIcNS0_11char_traitsIcEENS0_9allocatorIcEEEES6_, symObjAddr: 0x207C, symBinAddr: 0x1000041C0, symSize: 0x90 }
  - { offset: 0x8E57, size: 0x8, addend: 0x0, symName: __ZNK4Card11getValueIntEv, symObjAddr: 0x210C, symBinAddr: 0x100004250, symSize: 0xD8 }
  - { offset: 0x8E7E, size: 0x8, addend: 0x0, symName: __ZNK4Card14getValueStringEv, symObjAddr: 0x21E4, symBinAddr: 0x100004328, symSize: 0x1C8 }
  - { offset: 0x8EA5, size: 0x8, addend: 0x0, symName: __ZNKSt3__16vectorINS_12basic_stringIcNS_11char_traitsIcEENS_9allocatorIcEEEENS4_IS6_EEEixB8ne180100Em, symObjAddr: 0x23AC, symBinAddr: 0x1000044F0, symSize: 0x1D4 }
  - { offset: 0x8EDB, size: 0x8, addend: 0x0, symName: __ZNK4Card10getSuitIntEv, symObjAddr: 0x2580, symBinAddr: 0x1000046C4, symSize: 0xD8 }
  - { offset: 0x8F02, size: 0x8, addend: 0x0, symName: __ZNK4Card13getSuitStringEv, symObjAddr: 0x2658, symBinAddr: 0x10000479C, symSize: 0x1BC }
  - { offset: 0x8F29, size: 0x8, addend: 0x0, symName: __ZNK4CardeqERKS_, symObjAddr: 0x2814, symBinAddr: 0x100004958, symSize: 0x2B0 }
  - { offset: 0x8F5E, size: 0x8, addend: 0x0, symName: __ZNK4CardgtERKS_, symObjAddr: 0x2AC4, symBinAddr: 0x100004C08, symSize: 0x3CC }
  - { offset: 0x8F93, size: 0x8, addend: 0x0, symName: __ZNK4CardltERKS_, symObjAddr: 0x2E90, symBinAddr: 0x100004FD4, symSize: 0x3CC }
  - { offset: 0x8FC8, size: 0x8, addend: 0x0, symName: __ZNK4CardgeERKS_, symObjAddr: 0x325C, symBinAddr: 0x1000053A0, symSize: 0x1B8 }
  - { offset: 0x8FFD, size: 0x8, addend: 0x0, symName: __ZNK4CardleERKS_, symObjAddr: 0x3414, symBinAddr: 0x100005558, symSize: 0x1B8 }
  - { offset: 0x9031, size: 0x8, addend: 0x0, symName: __ZlsRNSt3__113basic_ostreamIcNS_11char_traitsIcEEEERK4Card, symObjAddr: 0x35CC, symBinAddr: 0x100005710, symSize: 0x5B8 }
  - { offset: 0x906D, size: 0x8, addend: 0x0, symName: __ZNSt3__112basic_stringIcNS_11char_traitsIcEENS_9allocatorIcEEEC2B8ne180100ILi0EEEPKc, symObjAddr: 0x3EE0, symBinAddr: 0x100006024, symSize: 0x270 }
  - { offset: 0x90B1, size: 0x8, addend: 0x0, symName: __ZNSt3__117__compressed_pairINS_12basic_stringIcNS_11char_traitsIcEENS_9allocatorIcEEE5__repES5_EC1B8ne180100INS_18__default_init_tagESA_EEOT_OT0_, symObjAddr: 0x4150, symBinAddr: 0x100006294, symSize: 0x88 }
  - { offset: 0x9108, size: 0x8, addend: 0x0, symName: __ZNSt3__111char_traitsIcE6lengthB8ne180100EPKc, symObjAddr: 0x41D8, symBinAddr: 0x10000631C, symSize: 0x40 }
  - { offset: 0x912A, size: 0x8, addend: 0x0, symName: __ZNSt3__117__compressed_pairINS_12basic_stringIcNS_11char_traitsIcEENS_9allocatorIcEEE5__repES5_EC2B8ne180100INS_18__default_init_tagESA_EEOT_OT0_, symObjAddr: 0x4218, symBinAddr: 0x10000635C, symSize: 0xF4 }
  - { offset: 0x9180, size: 0x8, addend: 0x0, symName: __ZNSt3__122__compressed_pair_elemINS_12basic_stringIcNS_11char_traitsIcEENS_9allocatorIcEEE5__repELi0ELb0EEC2B8ne180100ENS_18__default_init_tagE, symObjAddr: 0x430C, symBinAddr: 0x100006450, symSize: 0x6C }
  - { offset: 0x91B2, size: 0x8, addend: 0x0, symName: __ZNSt3__122__compressed_pair_elemINS_9allocatorIcEELi1ELb1EEC2B8ne180100ENS_18__default_init_tagE, symObjAddr: 0x4378, symBinAddr: 0x1000064BC, symSize: 0x84 }
  - { offset: 0x91E4, size: 0x8, addend: 0x0, symName: __ZNSt3__19allocatorIcEC2B8ne180100Ev, symObjAddr: 0x43FC, symBinAddr: 0x100006540, symSize: 0x84 }
  - { offset: 0x920C, size: 0x8, addend: 0x0, symName: __ZNSt3__116__non_trivial_ifILb1ENS_9allocatorIcEEEC2B8ne180100Ev, symObjAddr: 0x4480, symBinAddr: 0x1000065C4, symSize: 0x54 }
  - { offset: 0x9235, size: 0x8, addend: 0x0, symName: __ZNSt3__16vectorINS_12basic_stringIcNS_11char_traitsIcEENS_9allocatorIcEEEENS4_IS6_EEEC2B8ne180100ESt16initializer_listIS6_E, symObjAddr: 0x4508, symBinAddr: 0x10000664C, symSize: 0x5E8 }
  - { offset: 0x9291, size: 0x8, addend: 0x0, symName: __ZNSt3__117__compressed_pairIPNS_12basic_stringIcNS_11char_traitsIcEENS_9allocatorIcEEEENS4_IS6_EEEC1B8ne180100IDnNS_18__default_init_tagEEEOT_OT0_, symObjAddr: 0x4AF0, symBinAddr: 0x100006C34, symSize: 0x88 }
  - { offset: 0x92E7, size: 0x8, addend: 0x0, symName: __ZNSt3__16vectorINS_12basic_stringIcNS_11char_traitsIcEENS_9allocatorIcEEEENS4_IS6_EEE16__destroy_vectorC1B8ne180100ERS8_, symObjAddr: 0x4E24, symBinAddr: 0x100006F68, symSize: 0x80 }
  - { offset: 0x931F, size: 0x8, addend: 0x0, symName: __ZNKSt16initializer_listINSt3__112basic_stringIcNS0_11char_traitsIcEENS0_9allocatorIcEEEEE4sizeB8ne180100Ev, symObjAddr: 0x4EA4, symBinAddr: 0x100006FE8, symSize: 0xB0 }
  - { offset: 0x9344, size: 0x8, addend: 0x0, symName: __ZNSt3__16vectorINS_12basic_stringIcNS_11char_traitsIcEENS_9allocatorIcEEEENS4_IS6_EEE11__vallocateB8ne180100Em, symObjAddr: 0x4F54, symBinAddr: 0x100007098, symSize: 0x5E8 }
  - { offset: 0x938D, size: 0x8, addend: 0x0, symName: __ZNSt3__16vectorINS_12basic_stringIcNS_11char_traitsIcEENS_9allocatorIcEEEENS4_IS6_EEE18__construct_at_endIPKS6_SB_EEvT_T0_m, symObjAddr: 0x553C, symBinAddr: 0x100007680, symSize: 0x4B8 }
  - { offset: 0x940A, size: 0x8, addend: 0x0, symName: __ZNKSt16initializer_listINSt3__112basic_stringIcNS0_11char_traitsIcEENS0_9allocatorIcEEEEE5beginB8ne180100Ev, symObjAddr: 0x59F4, symBinAddr: 0x100007B38, symSize: 0xAC }
  - { offset: 0x942F, size: 0x8, addend: 0x0, symName: __ZNKSt16initializer_listINSt3__112basic_stringIcNS0_11char_traitsIcEENS0_9allocatorIcEEEEE3endB8ne180100Ev, symObjAddr: 0x5AA0, symBinAddr: 0x100007BE4, symSize: 0x1C8 }
  - { offset: 0x9454, size: 0x8, addend: 0x0, symName: __ZNSt3__128__exception_guard_exceptionsINS_6vectorINS_12basic_stringIcNS_11char_traitsIcEENS_9allocatorIcEEEENS5_IS7_EEE16__destroy_vectorEE10__completeB8ne180100Ev, symObjAddr: 0x5C68, symBinAddr: 0x100007DAC, symSize: 0xD8 }
  - { offset: 0x9478, size: 0x8, addend: 0x0, symName: __ZNSt3__128__exception_guard_exceptionsINS_6vectorINS_12basic_stringIcNS_11char_traitsIcEENS_9allocatorIcEEEENS5_IS7_EEE16__destroy_vectorEED1B8ne180100Ev, symObjAddr: 0x5D40, symBinAddr: 0x100007E84, symSize: 0x78 }
  - { offset: 0x94A0, size: 0x8, addend: 0x0, symName: __ZNSt3__117__compressed_pairIPNS_12basic_stringIcNS_11char_traitsIcEENS_9allocatorIcEEEENS4_IS6_EEEC2B8ne180100IDnNS_18__default_init_tagEEEOT_OT0_, symObjAddr: 0x5DB8, symBinAddr: 0x100007EFC, symSize: 0x140 }
  - { offset: 0x94F6, size: 0x8, addend: 0x0, symName: __ZNSt3__122__compressed_pair_elemIPNS_12basic_stringIcNS_11char_traitsIcEENS_9allocatorIcEEEELi0ELb0EEC2B8ne180100IDnvEEOT_, symObjAddr: 0x5EF8, symBinAddr: 0x10000803C, symSize: 0xBC }
  - { offset: 0x9536, size: 0x8, addend: 0x0, symName: __ZNSt3__122__compressed_pair_elemINS_9allocatorINS_12basic_stringIcNS_11char_traitsIcEENS1_IcEEEEEELi1ELb1EEC2B8ne180100ENS_18__default_init_tagE, symObjAddr: 0x5FB4, symBinAddr: 0x1000080F8, symSize: 0x84 }
  - { offset: 0x9568, size: 0x8, addend: 0x0, symName: __ZNSt3__19allocatorINS_12basic_stringIcNS_11char_traitsIcEENS0_IcEEEEEC2B8ne180100Ev, symObjAddr: 0x6038, symBinAddr: 0x10000817C, symSize: 0x84 }
  - { offset: 0x9590, size: 0x8, addend: 0x0, symName: __ZNSt3__116__non_trivial_ifILb1ENS_9allocatorINS_12basic_stringIcNS_11char_traitsIcEENS1_IcEEEEEEEC2B8ne180100Ev, symObjAddr: 0x60BC, symBinAddr: 0x100008200, symSize: 0x54 }
  - { offset: 0x95B8, size: 0x8, addend: 0x0, symName: __ZNSt3__128__exception_guard_exceptionsINS_6vectorINS_12basic_stringIcNS_11char_traitsIcEENS_9allocatorIcEEEENS5_IS7_EEE16__destroy_vectorEEC1B8ne180100ESA_, symObjAddr: 0x6110, symBinAddr: 0x100008254, symSize: 0x284 }
  - { offset: 0x95F3, size: 0x8, addend: 0x0, symName: __ZNSt3__128__exception_guard_exceptionsINS_6vectorINS_12basic_stringIcNS_11char_traitsIcEENS_9allocatorIcEEEENS5_IS7_EEE16__destroy_vectorEEC2B8ne180100ESA_, symObjAddr: 0x6394, symBinAddr: 0x1000084D8, symSize: 0x2B4 }
  - { offset: 0x962E, size: 0x8, addend: 0x0, symName: __ZNSt3__16vectorINS_12basic_stringIcNS_11char_traitsIcEENS_9allocatorIcEEEENS4_IS6_EEE16__destroy_vectorC2B8ne180100ERS8_, symObjAddr: 0x6648, symBinAddr: 0x10000878C, symSize: 0x108 }
  - { offset: 0x9666, size: 0x8, addend: 0x0, symName: __ZNKSt3__16vectorINS_12basic_stringIcNS_11char_traitsIcEENS_9allocatorIcEEEENS4_IS6_EEE8max_sizeEv, symObjAddr: 0x6750, symBinAddr: 0x100008894, symSize: 0x3F4 }
  - { offset: 0x968E, size: 0x8, addend: 0x0, symName: __ZNKSt3__16vectorINS_12basic_stringIcNS_11char_traitsIcEENS_9allocatorIcEEEENS4_IS6_EEE20__throw_length_errorB8ne180100Ev, symObjAddr: 0x6B44, symBinAddr: 0x100008C88, symSize: 0x80 }
  - { offset: 0x96B3, size: 0x8, addend: 0x0, symName: __ZNSt3__16vectorINS_12basic_stringIcNS_11char_traitsIcEENS_9allocatorIcEEEENS4_IS6_EEE7__allocB8ne180100Ev, symObjAddr: 0x6E48, symBinAddr: 0x100008F8C, symSize: 0xE4 }
  - { offset: 0x96D8, size: 0x8, addend: 0x0, symName: __ZNSt3__16vectorINS_12basic_stringIcNS_11char_traitsIcEENS_9allocatorIcEEEENS4_IS6_EEE9__end_capB8ne180100Ev, symObjAddr: 0x6F2C, symBinAddr: 0x100009070, symSize: 0x100 }
  - { offset: 0x96FD, size: 0x8, addend: 0x0, symName: __ZNKSt3__16vectorINS_12basic_stringIcNS_11char_traitsIcEENS_9allocatorIcEEEENS4_IS6_EEE14__annotate_newB8ne180100Em, symObjAddr: 0x702C, symBinAddr: 0x100009170, symSize: 0x268 }
  - { offset: 0x973B, size: 0x8, addend: 0x0, symName: __ZNSt3__116allocator_traitsINS_9allocatorINS_12basic_stringIcNS_11char_traitsIcEENS1_IcEEEEEEE8max_sizeB8ne180100IS7_vvEEmRKS7_, symObjAddr: 0x7398, symBinAddr: 0x1000094DC, symSize: 0x54 }
  - { offset: 0x9767, size: 0x8, addend: 0x0, symName: __ZNKSt3__16vectorINS_12basic_stringIcNS_11char_traitsIcEENS_9allocatorIcEEEENS4_IS6_EEE7__allocB8ne180100Ev, symObjAddr: 0x73EC, symBinAddr: 0x100009530, symSize: 0xE4 }
  - { offset: 0x978C, size: 0x8, addend: 0x0, symName: __ZNSt3__114numeric_limitsIlE3maxB8ne180100Ev, symObjAddr: 0x74D0, symBinAddr: 0x100009614, symSize: 0x14 }
  - { offset: 0x97B4, size: 0x8, addend: 0x0, symName: __ZNKSt3__16__lessIvvEclB8ne180100ImmEEbRKT_RKT0_, symObjAddr: 0x779C, symBinAddr: 0x1000098E0, symSize: 0xEC }
  - { offset: 0x9807, size: 0x8, addend: 0x0, symName: __ZNSt3__114numeric_limitsImE3maxB8ne180100Ev, symObjAddr: 0x7888, symBinAddr: 0x1000099CC, symSize: 0x14 }
  - { offset: 0x981B, size: 0x8, addend: 0x0, symName: __ZNSt3__123__libcpp_numeric_limitsImLb1EE3maxB8ne180100Ev, symObjAddr: 0x789C, symBinAddr: 0x1000099E0, symSize: 0x8 }
  - { offset: 0x982F, size: 0x8, addend: 0x0, symName: __ZNKSt3__117__compressed_pairIPNS_12basic_stringIcNS_11char_traitsIcEENS_9allocatorIcEEEENS4_IS6_EEE6secondB8ne180100Ev, symObjAddr: 0x78A4, symBinAddr: 0x1000099E8, symSize: 0x108 }
  - { offset: 0x9854, size: 0x8, addend: 0x0, symName: __ZNKSt3__122__compressed_pair_elemINS_9allocatorINS_12basic_stringIcNS_11char_traitsIcEENS1_IcEEEEEELi1ELb1EE5__getB8ne180100Ev, symObjAddr: 0x79AC, symBinAddr: 0x100009AF0, symSize: 0x74 }
  - { offset: 0x9879, size: 0x8, addend: 0x0, symName: __ZNSt3__123__libcpp_numeric_limitsIlLb1EE3maxB8ne180100Ev, symObjAddr: 0x7A20, symBinAddr: 0x100009B64, symSize: 0x8 }
  - { offset: 0x988C, size: 0x8, addend: 0x0, symName: __ZNSt12length_errorC1B8ne180100EPKc, symObjAddr: 0x7ADC, symBinAddr: 0x100009C20, symSize: 0x80 }
  - { offset: 0x98C2, size: 0x8, addend: 0x0, symName: __ZNSt12length_errorC2B8ne180100EPKc, symObjAddr: 0x7B5C, symBinAddr: 0x100009CA0, symSize: 0x120 }
  - { offset: 0x98F9, size: 0x8, addend: 0x0, symName: __ZNSt3__19allocatorINS_12basic_stringIcNS_11char_traitsIcEENS0_IcEEEEE8allocateB8ne180100Em, symObjAddr: 0x7C7C, symBinAddr: 0x100009DC0, symSize: 0xD0 }
  - { offset: 0x992C, size: 0x8, addend: 0x0, symName: __ZNSt3__117__compressed_pairIPNS_12basic_stringIcNS_11char_traitsIcEENS_9allocatorIcEEEENS4_IS6_EEE6secondB8ne180100Ev, symObjAddr: 0x7ED8, symBinAddr: 0x10000A01C, symSize: 0x108 }
  - { offset: 0x9951, size: 0x8, addend: 0x0, symName: __ZNSt3__122__compressed_pair_elemINS_9allocatorINS_12basic_stringIcNS_11char_traitsIcEENS1_IcEEEEEELi1ELb1EE5__getB8ne180100Ev, symObjAddr: 0x7FE0, symBinAddr: 0x10000A124, symSize: 0x74 }
  - { offset: 0x9976, size: 0x8, addend: 0x0, symName: __ZNSt3__117__compressed_pairIPNS_12basic_stringIcNS_11char_traitsIcEENS_9allocatorIcEEEENS4_IS6_EEE5firstB8ne180100Ev, symObjAddr: 0x8054, symBinAddr: 0x10000A198, symSize: 0x124 }
  - { offset: 0x999B, size: 0x8, addend: 0x0, symName: __ZNSt3__122__compressed_pair_elemIPNS_12basic_stringIcNS_11char_traitsIcEENS_9allocatorIcEEEELi0ELb0EE5__getB8ne180100Ev, symObjAddr: 0x8178, symBinAddr: 0x10000A2BC, symSize: 0xAC }
  - { offset: 0x99C0, size: 0x8, addend: 0x0, symName: __ZNKSt3__16vectorINS_12basic_stringIcNS_11char_traitsIcEENS_9allocatorIcEEEENS4_IS6_EEE31__annotate_contiguous_containerB8ne180100EPKvSA_, symObjAddr: 0x8224, symBinAddr: 0x10000A368, symSize: 0x1A8 }
  - { offset: 0x9A21, size: 0x8, addend: 0x0, symName: __ZNKSt3__16vectorINS_12basic_stringIcNS_11char_traitsIcEENS_9allocatorIcEEEENS4_IS6_EEE4dataB8ne180100Ev, symObjAddr: 0x83CC, symBinAddr: 0x10000A510, symSize: 0xB0 }
  - { offset: 0x9A46, size: 0x8, addend: 0x0, symName: __ZNKSt3__16vectorINS_12basic_stringIcNS_11char_traitsIcEENS_9allocatorIcEEEENS4_IS6_EEE8capacityB8ne180100Ev, symObjAddr: 0x847C, symBinAddr: 0x10000A5C0, symSize: 0x144 }
  - { offset: 0x9A6B, size: 0x8, addend: 0x0, symName: __ZNKSt3__16vectorINS_12basic_stringIcNS_11char_traitsIcEENS_9allocatorIcEEEENS4_IS6_EEE9__end_capB8ne180100Ev, symObjAddr: 0x85D4, symBinAddr: 0x10000A718, symSize: 0x100 }
  - { offset: 0x9A90, size: 0x8, addend: 0x0, symName: __ZNKSt3__117__compressed_pairIPNS_12basic_stringIcNS_11char_traitsIcEENS_9allocatorIcEEEENS4_IS6_EEE5firstB8ne180100Ev, symObjAddr: 0x86D4, symBinAddr: 0x10000A818, symSize: 0x124 }
  - { offset: 0x9AB5, size: 0x8, addend: 0x0, symName: __ZNKSt3__122__compressed_pair_elemIPNS_12basic_stringIcNS_11char_traitsIcEENS_9allocatorIcEEEELi0ELb0EE5__getB8ne180100Ev, symObjAddr: 0x87F8, symBinAddr: 0x10000A93C, symSize: 0xAC }
  - { offset: 0x9AF2, size: 0x8, addend: 0x0, symName: __ZNSt3__16vectorINS_12basic_stringIcNS_11char_traitsIcEENS_9allocatorIcEEEENS4_IS6_EEE21_ConstructTransactionC1B8ne180100ERS8_m, symObjAddr: 0x88A4, symBinAddr: 0x10000A9E8, symSize: 0x88 }
  - { offset: 0x9B38, size: 0x8, addend: 0x0, symName: __ZNSt3__16vectorINS_12basic_stringIcNS_11char_traitsIcEENS_9allocatorIcEEEENS4_IS6_EEE21_ConstructTransactionD1B8ne180100Ev, symObjAddr: 0x8C58, symBinAddr: 0x10000AD9C, symSize: 0x78 }
  - { offset: 0x9B60, size: 0x8, addend: 0x0, symName: __ZNSt3__16vectorINS_12basic_stringIcNS_11char_traitsIcEENS_9allocatorIcEEEENS4_IS6_EEE21_ConstructTransactionC2B8ne180100ERS8_m, symObjAddr: 0x8CD0, symBinAddr: 0x10000AE14, symSize: 0x3E0 }
  - { offset: 0x9BA7, size: 0x8, addend: 0x0, symName: __ZNKSt3__16vectorINS_12basic_stringIcNS_11char_traitsIcEENS_9allocatorIcEEEENS4_IS6_EEE19__annotate_increaseB8ne180100Em, symObjAddr: 0x90B0, symBinAddr: 0x10000B1F4, symSize: 0x35C }
  - { offset: 0x9BF4, size: 0x8, addend: 0x0, symName: __ZNSt3__119__unwrap_range_implIPKNS_12basic_stringIcNS_11char_traitsIcEENS_9allocatorIcEEEES8_E8__unwrapB8ne180100ES8_S8_, symObjAddr: 0x9DBC, symBinAddr: 0x10000BF00, symSize: 0x2FC }
  - { offset: 0x9C2B, size: 0x8, addend: 0x0, symName: __ZNSt3__14pairIPKNS_12basic_stringIcNS_11char_traitsIcEENS_9allocatorIcEEEES8_EC1B8ne180100IS8_S8_Li0EEEOT_OT0_, symObjAddr: 0xA0DC, symBinAddr: 0x10000C220, symSize: 0x88 }
  - { offset: 0x9C88, size: 0x8, addend: 0x0, symName: __ZNSt3__118__unwrap_iter_implIPKNS_12basic_stringIcNS_11char_traitsIcEENS_9allocatorIcEEEELb1EE8__unwrapB8ne180100ES8_, symObjAddr: 0xA164, symBinAddr: 0x10000C2A8, symSize: 0x24 }
  - { offset: 0x9CAA, size: 0x8, addend: 0x0, symName: __ZNSt3__14pairIPKNS_12basic_stringIcNS_11char_traitsIcEENS_9allocatorIcEEEES8_EC2B8ne180100IS8_S8_Li0EEEOT_OT0_, symObjAddr: 0xA19C, symBinAddr: 0x10000C2E0, symSize: 0x210 }
  - { offset: 0x9D06, size: 0x8, addend: 0x0, symName: __ZNSt3__129_AllocatorDestroyRangeReverseINS_9allocatorINS_12basic_stringIcNS_11char_traitsIcEENS1_IcEEEEEEPS6_EC1B8ne180100ERS7_RS8_SB_, symObjAddr: 0xA5D8, symBinAddr: 0x10000C71C, symSize: 0x90 }
  - { offset: 0x9D5C, size: 0x8, addend: 0x0, symName: __ZNSt3__116allocator_traitsINS_9allocatorINS_12basic_stringIcNS_11char_traitsIcEENS1_IcEEEEEEE9constructB8ne180100IS6_JRKS6_EvvEEvRS7_PT_DpOT0_, symObjAddr: 0xA668, symBinAddr: 0x10000C7AC, symSize: 0x80 }
  - { offset: 0x9DB1, size: 0x8, addend: 0x0, symName: __ZNSt3__128__exception_guard_exceptionsINS_29_AllocatorDestroyRangeReverseINS_9allocatorINS_12basic_stringIcNS_11char_traitsIcEENS2_IcEEEEEEPS7_EEE10__completeB8ne180100Ev, symObjAddr: 0xA6E8, symBinAddr: 0x10000C82C, symSize: 0xD8 }
  - { offset: 0x9DD5, size: 0x8, addend: 0x0, symName: __ZNSt3__128__exception_guard_exceptionsINS_29_AllocatorDestroyRangeReverseINS_9allocatorINS_12basic_stringIcNS_11char_traitsIcEENS2_IcEEEEEEPS7_EEED1B8ne180100Ev, symObjAddr: 0xA7C0, symBinAddr: 0x10000C904, symSize: 0x78 }
  - { offset: 0x9DFD, size: 0x8, addend: 0x0, symName: __ZNSt3__128__exception_guard_exceptionsINS_29_AllocatorDestroyRangeReverseINS_9allocatorINS_12basic_stringIcNS_11char_traitsIcEENS2_IcEEEEEEPS7_EEEC1B8ne180100ESA_, symObjAddr: 0xA838, symBinAddr: 0x10000C97C, symSize: 0x84 }
  - { offset: 0x9E34, size: 0x8, addend: 0x0, symName: __ZNSt3__128__exception_guard_exceptionsINS_29_AllocatorDestroyRangeReverseINS_9allocatorINS_12basic_stringIcNS_11char_traitsIcEENS2_IcEEEEEEPS7_EEEC2B8ne180100ESA_, symObjAddr: 0xA8BC, symBinAddr: 0x10000CA00, symSize: 0xF8 }
  - { offset: 0x9E6B, size: 0x8, addend: 0x0, symName: __ZNSt3__129_AllocatorDestroyRangeReverseINS_9allocatorINS_12basic_stringIcNS_11char_traitsIcEENS1_IcEEEEEEPS6_EC2B8ne180100ERS7_RS8_SB_, symObjAddr: 0xA9B4, symBinAddr: 0x10000CAF8, symSize: 0x20C }
  - { offset: 0x9EC0, size: 0x8, addend: 0x0, symName: __ZNSt3__128__exception_guard_exceptionsINS_29_AllocatorDestroyRangeReverseINS_9allocatorINS_12basic_stringIcNS_11char_traitsIcEENS2_IcEEEEEEPS7_EEED2B8ne180100Ev, symObjAddr: 0xACFC, symBinAddr: 0x10000CE40, symSize: 0x17C }
  - { offset: 0x9EE9, size: 0x8, addend: 0x0, symName: __ZNKSt3__129_AllocatorDestroyRangeReverseINS_9allocatorINS_12basic_stringIcNS_11char_traitsIcEENS1_IcEEEEEEPS6_EclB8ne180100Ev, symObjAddr: 0xAE78, symBinAddr: 0x10000CFBC, symSize: 0x3FC }
  - { offset: 0x9F0E, size: 0x8, addend: 0x0, symName: __ZNSt3__116reverse_iteratorIPNS_12basic_stringIcNS_11char_traitsIcEENS_9allocatorIcEEEEEC1B8ne180100ES7_, symObjAddr: 0xB540, symBinAddr: 0x10000D684, symSize: 0x80 }
  - { offset: 0x9F45, size: 0x8, addend: 0x0, symName: __ZNSt3__116allocator_traitsINS_9allocatorINS_12basic_stringIcNS_11char_traitsIcEENS1_IcEEEEEEE7destroyB8ne180100IS6_vvEEvRS7_PT_, symObjAddr: 0xB65C, symBinAddr: 0x10000D7A0, symSize: 0x28 }
  - { offset: 0x9F80, size: 0x8, addend: 0x0, symName: __ZNSt3__116reverse_iteratorIPNS_12basic_stringIcNS_11char_traitsIcEENS_9allocatorIcEEEEEppB8ne180100Ev, symObjAddr: 0xB6F0, symBinAddr: 0x10000D834, symSize: 0x1B0 }
  - { offset: 0x9FA5, size: 0x8, addend: 0x0, symName: __ZNKSt3__116reverse_iteratorIPNS_12basic_stringIcNS_11char_traitsIcEENS_9allocatorIcEEEEE4baseB8ne180100Ev, symObjAddr: 0xB8A0, symBinAddr: 0x10000D9E4, symSize: 0xB0 }
  - { offset: 0x9FCF, size: 0x8, addend: 0x0, symName: __ZNSt3__119__to_address_helperINS_16reverse_iteratorIPNS_12basic_stringIcNS_11char_traitsIcEENS_9allocatorIcEEEEEEvE6__callB8ne180100ERKS9_, symObjAddr: 0xB9BC, symBinAddr: 0x10000DB00, symSize: 0x70 }
  - { offset: 0x9FF2, size: 0x8, addend: 0x0, symName: __ZNKSt3__116reverse_iteratorIPNS_12basic_stringIcNS_11char_traitsIcEENS_9allocatorIcEEEEEptB8ne180100Ev, symObjAddr: 0xBA2C, symBinAddr: 0x10000DB70, symSize: 0xB8 }
  - { offset: 0xA016, size: 0x8, addend: 0x0, symName: __ZNSt3__116reverse_iteratorIPNS_12basic_stringIcNS_11char_traitsIcEENS_9allocatorIcEEEEEC2B8ne180100ES7_, symObjAddr: 0xBF84, symBinAddr: 0x10000E0C8, symSize: 0x10C }
  - { offset: 0xA04D, size: 0x8, addend: 0x0, symName: __ZNSt3__118__unwrap_iter_implIPNS_12basic_stringIcNS_11char_traitsIcEENS_9allocatorIcEEEELb1EE8__unwrapB8ne180100ES7_, symObjAddr: 0xC090, symBinAddr: 0x10000E1D4, symSize: 0x24 }
  - { offset: 0xA070, size: 0x8, addend: 0x0, symName: __ZNSt3__118__unwrap_iter_implIPNS_12basic_stringIcNS_11char_traitsIcEENS_9allocatorIcEEEELb1EE8__rewrapB8ne180100ES7_S7_, symObjAddr: 0xC0B4, symBinAddr: 0x10000E1F8, symSize: 0x140 }
  - { offset: 0xA0A0, size: 0x8, addend: 0x0, symName: __ZNSt3__16vectorINS_12basic_stringIcNS_11char_traitsIcEENS_9allocatorIcEEEENS4_IS6_EEE21_ConstructTransactionD2B8ne180100Ev, symObjAddr: 0xC1F4, symBinAddr: 0x10000E338, symSize: 0x390 }
  - { offset: 0xA0C9, size: 0x8, addend: 0x0, symName: __ZNKSt3__16vectorINS_12basic_stringIcNS_11char_traitsIcEENS_9allocatorIcEEEENS4_IS6_EEE17__annotate_shrinkB8ne180100Em, symObjAddr: 0xC584, symBinAddr: 0x10000E6C8, symSize: 0x268 }
  - { offset: 0xA0FC, size: 0x8, addend: 0x0, symName: __ZNSt3__128__exception_guard_exceptionsINS_6vectorINS_12basic_stringIcNS_11char_traitsIcEENS_9allocatorIcEEEENS5_IS7_EEE16__destroy_vectorEED2B8ne180100Ev, symObjAddr: 0xC7EC, symBinAddr: 0x10000E930, symSize: 0x17C }
  - { offset: 0xA125, size: 0x8, addend: 0x0, symName: __ZNSt3__16vectorINS_12basic_stringIcNS_11char_traitsIcEENS_9allocatorIcEEEENS4_IS6_EEE16__destroy_vectorclB8ne180100Ev, symObjAddr: 0xC968, symBinAddr: 0x10000EAAC, symSize: 0x43C }
  - { offset: 0xA14A, size: 0x8, addend: 0x0, symName: __ZNSt3__16vectorINS_12basic_stringIcNS_11char_traitsIcEENS_9allocatorIcEEEENS4_IS6_EEE7__clearB8ne180100Ev, symObjAddr: 0xCDA4, symBinAddr: 0x10000EEE8, symSize: 0xB0 }
  - { offset: 0xA16F, size: 0x8, addend: 0x0, symName: __ZNKSt3__16vectorINS_12basic_stringIcNS_11char_traitsIcEENS_9allocatorIcEEEENS4_IS6_EEE17__annotate_deleteB8ne180100Ev, symObjAddr: 0xCE54, symBinAddr: 0x10000EF98, symSize: 0x278 }
  - { offset: 0xA194, size: 0x8, addend: 0x0, symName: __ZNSt3__116allocator_traitsINS_9allocatorINS_12basic_stringIcNS_11char_traitsIcEENS1_IcEEEEEEE10deallocateB8ne180100ERS7_PS6_m, symObjAddr: 0xD0CC, symBinAddr: 0x10000F210, symSize: 0x34 }
  - { offset: 0xA1D6, size: 0x8, addend: 0x0, symName: __ZNSt3__16vectorINS_12basic_stringIcNS_11char_traitsIcEENS_9allocatorIcEEEENS4_IS6_EEE22__base_destruct_at_endB8ne180100EPS6_, symObjAddr: 0xD100, symBinAddr: 0x10000F244, symSize: 0x1FC }
  - { offset: 0xA219, size: 0x8, addend: 0x0, symName: __ZNSt3__19allocatorINS_12basic_stringIcNS_11char_traitsIcEENS0_IcEEEEE10deallocateB8ne180100EPS5_m, symObjAddr: 0xD2FC, symBinAddr: 0x10000F440, symSize: 0x7C }
  - { offset: 0xA25A, size: 0x8, addend: 0x0, symName: __ZNKSt3__112basic_stringIcNS_11char_traitsIcEENS_9allocatorIcEEE4sizeB8ne180100Ev, symObjAddr: 0xD480, symBinAddr: 0x10000F5C4, symSize: 0x98 }
  - { offset: 0xA27F, size: 0x8, addend: 0x0, symName: __ZNKSt3__112basic_stringIcNS_11char_traitsIcEENS_9allocatorIcEEE4dataB8ne180100Ev, symObjAddr: 0xD518, symBinAddr: 0x10000F65C, symSize: 0x70 }
  - { offset: 0xA2A4, size: 0x8, addend: 0x0, symName: __ZNKSt3__112basic_stringIcNS_11char_traitsIcEENS_9allocatorIcEEE9__is_longB8ne180100Ev, symObjAddr: 0xD588, symBinAddr: 0x10000F6CC, symSize: 0x1FC }
  - { offset: 0xA2C9, size: 0x8, addend: 0x0, symName: __ZNSt3__111char_traitsIcE7compareB8ne180100EPKcS3_m, symObjAddr: 0xD784, symBinAddr: 0x10000F8C8, symSize: 0x34 }
  - { offset: 0xA308, size: 0x8, addend: 0x0, symName: __ZNKSt3__112basic_stringIcNS_11char_traitsIcEENS_9allocatorIcEEE15__get_long_sizeB8ne180100Ev, symObjAddr: 0xD7B8, symBinAddr: 0x10000F8FC, symSize: 0x210 }
  - { offset: 0xA32D, size: 0x8, addend: 0x0, symName: __ZNKSt3__112basic_stringIcNS_11char_traitsIcEENS_9allocatorIcEEE16__get_short_sizeB8ne180100Ev, symObjAddr: 0xD9C8, symBinAddr: 0x10000FB0C, symSize: 0x1F8 }
  - { offset: 0xA352, size: 0x8, addend: 0x0, symName: __ZNKSt3__117__compressed_pairINS_12basic_stringIcNS_11char_traitsIcEENS_9allocatorIcEEE5__repES5_E5firstB8ne180100Ev, symObjAddr: 0xDBC0, symBinAddr: 0x10000FD04, symSize: 0x124 }
  - { offset: 0xA377, size: 0x8, addend: 0x0, symName: __ZNKSt3__122__compressed_pair_elemINS_12basic_stringIcNS_11char_traitsIcEENS_9allocatorIcEEE5__repELi0ELb0EE5__getB8ne180100Ev, symObjAddr: 0xDCE4, symBinAddr: 0x10000FE28, symSize: 0xAC }
  - { offset: 0xA39C, size: 0x8, addend: 0x0, symName: __ZNKSt3__112basic_stringIcNS_11char_traitsIcEENS_9allocatorIcEEE13__get_pointerB8ne180100Ev, symObjAddr: 0xDDA4, symBinAddr: 0x10000FEE8, symSize: 0x98 }
  - { offset: 0xA3C1, size: 0x8, addend: 0x0, symName: __ZNKSt3__112basic_stringIcNS_11char_traitsIcEENS_9allocatorIcEEE18__get_long_pointerB8ne180100Ev, symObjAddr: 0xDE3C, symBinAddr: 0x10000FF80, symSize: 0x208 }
  - { offset: 0xA3E6, size: 0x8, addend: 0x0, symName: __ZNKSt3__112basic_stringIcNS_11char_traitsIcEENS_9allocatorIcEEE19__get_short_pointerB8ne180100Ev, symObjAddr: 0xE044, symBinAddr: 0x100010188, symSize: 0x1CC }
  - { offset: 0xA40B, size: 0x8, addend: 0x0, symName: __ZNSt3__114pointer_traitsIPKcE10pointer_toB8ne180100ERS1_, symObjAddr: 0xE210, symBinAddr: 0x100010354, symSize: 0x14 }
  - { offset: 0xA42D, size: 0x8, addend: 0x0, symName: __ZNSt3__16vectorINS_12basic_stringIcNS_11char_traitsIcEENS_9allocatorIcEEEENS4_IS6_EEED2B8ne180100Ev, symObjAddr: 0xE224, symBinAddr: 0x100010368, symSize: 0x2CC }
  - { offset: 0xA457, size: 0x8, addend: 0x0, symName: __ZNSt3__112basic_stringIcNS_11char_traitsIcEENS_9allocatorIcEEE6appendB8ne180100ERKS5_, symObjAddr: 0xE4F0, symBinAddr: 0x100010634, symSize: 0x12C }
  - { offset: 0xA48A, size: 0x8, addend: 0x0, symName: __ZNSt3__112basic_stringIcNS_11char_traitsIcEENS_9allocatorIcEEEC1B8ne180100EOS5_, symObjAddr: 0xE61C, symBinAddr: 0x100010760, symSize: 0x80 }
  - { offset: 0xA4C1, size: 0x8, addend: 0x0, symName: __ZNSt3__112basic_stringIcNS_11char_traitsIcEENS_9allocatorIcEEEC2B8ne180100EOS5_, symObjAddr: 0xE69C, symBinAddr: 0x1000107E0, symSize: 0x42C }
  - { offset: 0xA52A, size: 0x8, addend: 0x0, symName: __ZZNSt3__112basic_stringIcNS_11char_traitsIcEENS_9allocatorIcEEEC1B8ne180100EOS5_ENKUlRS5_E_clES7_, symObjAddr: 0xEAC8, symBinAddr: 0x100010C0C, symSize: 0x118 }
  - { offset: 0xA562, size: 0x8, addend: 0x0, symName: __ZNSt3__117__compressed_pairINS_12basic_stringIcNS_11char_traitsIcEENS_9allocatorIcEEE5__repES5_E5firstB8ne180100Ev, symObjAddr: 0xEBE0, symBinAddr: 0x100010D24, symSize: 0x124 }
  - { offset: 0xA587, size: 0x8, addend: 0x0, symName: __ZNKSt3__112basic_stringIcNS_11char_traitsIcEENS_9allocatorIcEEE14__annotate_newB8ne180100Em, symObjAddr: 0xED04, symBinAddr: 0x100010E48, symSize: 0x64 }
  - { offset: 0xA5BB, size: 0x8, addend: 0x0, symName: __ZNKSt3__112basic_stringIcNS_11char_traitsIcEENS_9allocatorIcEEE17__annotate_deleteB8ne180100Ev, symObjAddr: 0xED68, symBinAddr: 0x100010EAC, symSize: 0x60 }
  - { offset: 0xA5E0, size: 0x8, addend: 0x0, symName: __ZNSt3__122__compressed_pair_elemINS_12basic_stringIcNS_11char_traitsIcEENS_9allocatorIcEEE5__repELi0ELb0EE5__getB8ne180100Ev, symObjAddr: 0xEDC8, symBinAddr: 0x100010F0C, symSize: 0xAC }
  - { offset: 0xA623, size: 0x8, addend: 0x0, symName: __ZNKSt3__113basic_ostreamIcNS_11char_traitsIcEEE6sentrycvbB8ne180100Ev, symObjAddr: 0xFFBC, symBinAddr: 0x100012100, symSize: 0x104 }
  - { offset: 0xA647, size: 0x8, addend: 0x0, symName: __ZNSt3__119ostreambuf_iteratorIcNS_11char_traitsIcEEEC1B8ne180100ERNS_13basic_ostreamIcS2_EE, symObjAddr: 0x10CBC, symBinAddr: 0x100012E00, symSize: 0x80 }
  - { offset: 0xA67E, size: 0x8, addend: 0x0, symName: __ZNKSt3__18ios_base5flagsB8ne180100Ev, symObjAddr: 0x10D3C, symBinAddr: 0x100012E80, symSize: 0x160 }
  - { offset: 0xA6A5, size: 0x8, addend: 0x0, symName: __ZNKSt3__19basic_iosIcNS_11char_traitsIcEEE4fillB8ne180100Ev, symObjAddr: 0x10E9C, symBinAddr: 0x100012FE0, symSize: 0x3A0 }
  - { offset: 0xA6CC, size: 0x8, addend: 0x0, symName: __ZNKSt3__119ostreambuf_iteratorIcNS_11char_traitsIcEEE6failedB8ne180100Ev, symObjAddr: 0x1123C, symBinAddr: 0x100013380, symSize: 0xB8 }
  - { offset: 0xA6F1, size: 0x8, addend: 0x0, symName: __ZNSt3__19basic_iosIcNS_11char_traitsIcEEE8setstateB8ne180100Ej, symObjAddr: 0x112F4, symBinAddr: 0x100013438, symSize: 0x128 }
  - { offset: 0xA725, size: 0x8, addend: 0x0, symName: __ZNKSt3__18ios_base5widthB8ne180100Ev, symObjAddr: 0x1141C, symBinAddr: 0x100013560, symSize: 0x138 }
  - { offset: 0xA74C, size: 0x8, addend: 0x0, symName: __ZNSt3__115basic_streambufIcNS_11char_traitsIcEEE5sputnB8ne180100EPKcl, symObjAddr: 0x11554, symBinAddr: 0x100013698, symSize: 0x198 }
  - { offset: 0xA78C, size: 0x8, addend: 0x0, symName: __ZNSt3__112basic_stringIcNS_11char_traitsIcEENS_9allocatorIcEEEC1B8ne180100Emc, symObjAddr: 0x116EC, symBinAddr: 0x100013830, symSize: 0x88 }
  - { offset: 0xA7D3, size: 0x8, addend: 0x0, symName: __ZNSt3__112basic_stringIcNS_11char_traitsIcEENS_9allocatorIcEEE4dataB8ne180100Ev, symObjAddr: 0x11774, symBinAddr: 0x1000138B8, symSize: 0x70 }
  - { offset: 0xA7F8, size: 0x8, addend: 0x0, symName: __ZNSt3__18ios_base5widthB8ne180100El, symObjAddr: 0x117E4, symBinAddr: 0x100013928, symSize: 0x1F8 }
  - { offset: 0xA83C, size: 0x8, addend: 0x0, symName: __ZNSt3__112basic_stringIcNS_11char_traitsIcEENS_9allocatorIcEEEC2B8ne180100Emc, symObjAddr: 0x119DC, symBinAddr: 0x100013B20, symSize: 0x264 }
  - { offset: 0xA886, size: 0x8, addend: 0x0, symName: __ZNSt3__112basic_stringIcNS_11char_traitsIcEENS_9allocatorIcEEE13__get_pointerB8ne180100Ev, symObjAddr: 0x11C54, symBinAddr: 0x100013D98, symSize: 0x98 }
  - { offset: 0xA8AB, size: 0x8, addend: 0x0, symName: __ZNSt3__112basic_stringIcNS_11char_traitsIcEENS_9allocatorIcEEE18__get_long_pointerB8ne180100Ev, symObjAddr: 0x11CEC, symBinAddr: 0x100013E30, symSize: 0x208 }
  - { offset: 0xA8D0, size: 0x8, addend: 0x0, symName: __ZNSt3__112basic_stringIcNS_11char_traitsIcEENS_9allocatorIcEEE19__get_short_pointerB8ne180100Ev, symObjAddr: 0x11EF4, symBinAddr: 0x100014038, symSize: 0x1CC }
  - { offset: 0xA8F5, size: 0x8, addend: 0x0, symName: __ZNSt3__114pointer_traitsIPcE10pointer_toB8ne180100ERc, symObjAddr: 0x120C0, symBinAddr: 0x100014204, symSize: 0x14 }
  - { offset: 0xA917, size: 0x8, addend: 0x0, symName: __ZNSt3__119ostreambuf_iteratorIcNS_11char_traitsIcEEEC2B8ne180100ERNS_13basic_ostreamIcS2_EE, symObjAddr: 0x120D4, symBinAddr: 0x100014218, symSize: 0x2E8 }
  - { offset: 0xA94E, size: 0x8, addend: 0x0, symName: __ZNKSt3__19basic_iosIcNS_11char_traitsIcEEE5rdbufB8ne180100Ev, symObjAddr: 0x123BC, symBinAddr: 0x100014500, symSize: 0x120 }
  - { offset: 0xA975, size: 0x8, addend: 0x0, symName: __ZNKSt3__18ios_base5rdbufB8ne180100Ev, symObjAddr: 0x124DC, symBinAddr: 0x100014620, symSize: 0x138 }
  - { offset: 0xA99A, size: 0x8, addend: 0x0, symName: __ZNSt3__111char_traitsIcE11eq_int_typeB8ne180100Eii, symObjAddr: 0x12614, symBinAddr: 0x100014758, symSize: 0x28 }
  - { offset: 0xA9CD, size: 0x8, addend: 0x0, symName: __ZNSt3__111char_traitsIcE3eofB8ne180100Ev, symObjAddr: 0x1263C, symBinAddr: 0x100014780, symSize: 0x8 }
  - { offset: 0xA9E1, size: 0x8, addend: 0x0, symName: __ZNKSt3__19basic_iosIcNS_11char_traitsIcEEE5widenB8ne180100Ec, symObjAddr: 0x12644, symBinAddr: 0x100014788, symSize: 0x494 }
  - { offset: 0xAA5B, size: 0x8, addend: 0x0, symName: __ZNKSt3__15ctypeIcE5widenB8ne180100Ec, symObjAddr: 0x12C60, symBinAddr: 0x100014DA4, symSize: 0x18C }
  - { offset: 0xAA8F, size: 0x8, addend: 0x0, symName: __ZNSt3__18ios_base8setstateB8ne180100Ej, symObjAddr: 0x12DEC, symBinAddr: 0x100014F30, symSize: 0x1E0 }
  - { offset: 0xCF18, size: 0x8, addend: 0x0, symName: _.str, symObjAddr: 0x1E780, symBinAddr: 0x100057420, symSize: 0x0 }
  - { offset: 0xCF49, size: 0x8, addend: 0x0, symName: _.str.11, symObjAddr: 0x1E7A0, symBinAddr: 0x100057440, symSize: 0x0 }
  - { offset: 0x11550, size: 0x8, addend: 0x0, symName: __ZNSt3__130__uninitialized_allocator_copyB8ne180100INS_9allocatorINS_12basic_stringIcNS_11char_traitsIcEENS1_IcEEEEEEPS6_S8_S8_EET2_RT_T0_T1_S9_, symObjAddr: 0xB654, symBinAddr: 0x10001C3AC, symSize: 0x32C }
  - { offset: 0x115F6, size: 0x8, addend: 0x0, symName: __ZNSt3__114__unwrap_rangeB8ne180100IPNS_12basic_stringIcNS_11char_traitsIcEENS_9allocatorIcEEEES7_EEDaT_T0_, symObjAddr: 0xC134, symBinAddr: 0x10001C6D8, symSize: 0x21C }
  - { offset: 0x11644, size: 0x8, addend: 0x0, symName: __ZNSt3__135__uninitialized_allocator_copy_implB8ne180100INS_9allocatorINS_12basic_stringIcNS_11char_traitsIcEENS1_IcEEEEEEPS6_S8_S8_EET2_RT_T0_T1_S9_, symObjAddr: 0xC350, symBinAddr: 0x10001C8F4, symSize: 0x728 }
  - { offset: 0x1180C, size: 0x8, addend: 0x0, symName: __ZNSt3__114__construct_atB8ne180100INS_12basic_stringIcNS_11char_traitsIcEENS_9allocatorIcEEEEJRS6_EPS6_EEPT_SA_DpOT0_, symObjAddr: 0xD88C, symBinAddr: 0x10001D630, symSize: 0x7C }
  - { offset: 0x1185F, size: 0x8, addend: 0x0, symName: __ZNSt3__112construct_atB8ne180100INS_12basic_stringIcNS_11char_traitsIcEENS_9allocatorIcEEEEJRS6_EPS6_EEPT_SA_DpOT0_, symObjAddr: 0xD908, symBinAddr: 0x10001D6AC, symSize: 0xC0 }
  - { offset: 0x11905, size: 0x8, addend: 0x0, symName: __ZNSt3__18distanceB8ne180100IPNS_12basic_stringIcNS_11char_traitsIcEENS_9allocatorIcEEEEEENS_15iterator_traitsIT_E15difference_typeES9_S9_, symObjAddr: 0xFDEC, symBinAddr: 0x10001DFCC, symSize: 0x2C }
  - { offset: 0x11948, size: 0x8, addend: 0x0, symName: __ZNSt3__14nextB8ne180100IPNS_12basic_stringIcNS_11char_traitsIcEENS_9allocatorIcEEEELi0EEET_S8_NS_15iterator_traitsIS8_E15difference_typeE, symObjAddr: 0xFE18, symBinAddr: 0x10001DFF8, symSize: 0x230 }
  - { offset: 0x11996, size: 0x8, addend: 0x0, symName: __ZNSt3__14copyB8ne180100IPNS_12basic_stringIcNS_11char_traitsIcEENS_9allocatorIcEEEES7_EET0_T_S9_S8_, symObjAddr: 0x10048, symBinAddr: 0x10001E228, symSize: 0x2AC }
  - { offset: 0x119F3, size: 0x8, addend: 0x0, symName: __ZNSt3__16__copyB8ne180100INS_17_ClassicAlgPolicyEPNS_12basic_stringIcNS_11char_traitsIcEENS_9allocatorIcEEEES8_S8_EENS_4pairIT0_T2_EESA_T1_SB_, symObjAddr: 0x102F4, symBinAddr: 0x10001E4D4, symSize: 0x224 }
  - { offset: 0x11A62, size: 0x8, addend: 0x0, symName: __ZNSt3__123__dispatch_copy_or_moveB8ne180100INS_17_ClassicAlgPolicyENS_11__copy_loopIS1_EENS_14__copy_trivialEPNS_12basic_stringIcNS_11char_traitsIcEENS_9allocatorIcEEEESB_SB_EENS_4pairIT2_T4_EESD_T3_SE_, symObjAddr: 0x10C38, symBinAddr: 0x10001EE18, symSize: 0x224 }
  - { offset: 0x11AE3, size: 0x8, addend: 0x0, symName: __ZNSt3__121__unwrap_and_dispatchB8ne180100INS_10__overloadINS_11__copy_loopINS_17_ClassicAlgPolicyEEENS_14__copy_trivialEEEPNS_12basic_stringIcNS_11char_traitsIcEENS_9allocatorIcEEEESD_SD_Li0EEENS_4pairIT0_T2_EESF_T1_SG_, symObjAddr: 0x10E5C, symBinAddr: 0x10001F03C, symSize: 0x62C }
  - { offset: 0x11BD7, size: 0x8, addend: 0x0, symName: __ZNSt3__19make_pairB8ne180100IPNS_12basic_stringIcNS_11char_traitsIcEENS_9allocatorIcEEEES7_EENS_4pairINS_18__unwrap_ref_decayIT_E4typeENS9_IT0_E4typeEEEOSA_OSD_, symObjAddr: 0x11AE4, symBinAddr: 0x10001FCC4, symSize: 0x298 }
  - { offset: 0x11C28, size: 0x8, addend: 0x0, symName: __ZNSt3__114__rewrap_rangeB8ne180100IPNS_12basic_stringIcNS_11char_traitsIcEENS_9allocatorIcEEEES7_S7_EET0_S8_T1_, symObjAddr: 0x11D7C, symBinAddr: 0x10001FF5C, symSize: 0x2C }
  - { offset: 0x11C7D, size: 0x8, addend: 0x0, symName: __ZNSt3__13maxB8ne180100ImEERKT_S3_S3_, symObjAddr: 0x11E5C, symBinAddr: 0x10002003C, symSize: 0x104 }
  - { offset: 0x11CC0, size: 0x8, addend: 0x0, symName: __ZNSt3__13maxB8ne180100ImNS_6__lessIvvEEEERKT_S5_S5_T0_, symObjAddr: 0x11F60, symBinAddr: 0x100020140, symSize: 0x2B8 }
  - { offset: 0x11D20, size: 0x8, addend: 0x0, symName: __ZNSt3__110__distanceB8ne180100IPNS_12basic_stringIcNS_11char_traitsIcEENS_9allocatorIcEEEEEENS_15iterator_traitsIT_E15difference_typeES9_S9_NS_26random_access_iterator_tagE, symObjAddr: 0x12218, symBinAddr: 0x1000203F8, symSize: 0x28 }
  - { offset: 0x131CD, size: 0x8, addend: 0x0, symName: __ZN8CardListC2Ev, symObjAddr: 0x0, symBinAddr: 0x100015160, symSize: 0xB8 }
  - { offset: 0x131F7, size: 0x8, addend: 0x0, symName: __ZN8CardListC1Ev, symObjAddr: 0xB8, symBinAddr: 0x100015218, symSize: 0x78 }
  - { offset: 0x13221, size: 0x8, addend: 0x0, symName: __ZN8CardListD2Ev, symObjAddr: 0x130, symBinAddr: 0x100015290, symSize: 0xD0 }
  - { offset: 0x1324C, size: 0x8, addend: 0x0, symName: __ZN8CardList5clearEPNS_4NodeE, symObjAddr: 0x200, symBinAddr: 0x100015360, symSize: 0x2A8 }
  - { offset: 0x13280, size: 0x8, addend: 0x0, symName: __ZN8CardListD1Ev, symObjAddr: 0x4B8, symBinAddr: 0x100015608, symSize: 0x78 }
  - { offset: 0x132AA, size: 0x8, addend: 0x0, symName: __ZN8CardList4NodeD1Ev, symObjAddr: 0x530, symBinAddr: 0x100015680, symSize: 0x78 }
  - { offset: 0x132D5, size: 0x8, addend: 0x0, symName: __ZN8CardList6insertERK4Card, symObjAddr: 0x5A8, symBinAddr: 0x1000156F8, symSize: 0x278 }
  - { offset: 0x13309, size: 0x8, addend: 0x0, symName: __ZN8CardList4NodeC1ERK4Card, symObjAddr: 0x820, symBinAddr: 0x100015970, symSize: 0x80 }
  - { offset: 0x13340, size: 0x8, addend: 0x0, symName: __ZN8CardList6insertERK4CardPNS_4NodeE, symObjAddr: 0x8A0, symBinAddr: 0x1000159F0, symSize: 0xBA8 }
  - { offset: 0x133BC, size: 0x8, addend: 0x0, symName: __ZNK8CardList5printEv, symObjAddr: 0x1448, symBinAddr: 0x100016598, symSize: 0x100 }
  - { offset: 0x133E3, size: 0x8, addend: 0x0, symName: __ZNK8CardList5printEPNS_4NodeE, symObjAddr: 0x1548, symBinAddr: 0x100016698, symSize: 0x4D8 }
  - { offset: 0x13418, size: 0x8, addend: 0x0, symName: __ZNK8CardList10getNodeForERK4CardPNS_4NodeE, symObjAddr: 0x1AF0, symBinAddr: 0x100016B70, symSize: 0x4D0 }
  - { offset: 0x1345B, size: 0x8, addend: 0x0, symName: __ZNK8CardList8containsERK4Card, symObjAddr: 0x1FC0, symBinAddr: 0x100017040, symSize: 0x174 }
  - { offset: 0x13490, size: 0x8, addend: 0x0, symName: __ZNK8CardList8containsERK4CardPNS_4NodeE, symObjAddr: 0x2134, symBinAddr: 0x1000171B4, symSize: 0x4F8 }
  - { offset: 0x134D3, size: 0x8, addend: 0x0, symName: __ZNK8CardList18getPredecessorNodeEPNS_4NodeE, symObjAddr: 0x262C, symBinAddr: 0x1000176AC, symSize: 0x6D4 }
  - { offset: 0x13524, size: 0x8, addend: 0x0, symName: __ZNK8CardList16getSuccessorNodeEPNS_4NodeE, symObjAddr: 0x2D00, symBinAddr: 0x100017D80, symSize: 0x6D4 }
  - { offset: 0x13575, size: 0x8, addend: 0x0, symName: __ZN8CardList5eraseERK4Card, symObjAddr: 0x33D4, symBinAddr: 0x100018454, symSize: 0xF28 }
  - { offset: 0x135E8, size: 0x8, addend: 0x0, symName: __ZN4CardaSERKS_, symObjAddr: 0x42FC, symBinAddr: 0x10001937C, symSize: 0x204 }
  - { offset: 0x13618, size: 0x8, addend: 0x0, symName: __ZNK8CardList11getSmallestEv, symObjAddr: 0x4500, symBinAddr: 0x100019580, symSize: 0x2C4 }
  - { offset: 0x1364D, size: 0x8, addend: 0x0, symName: __ZNK8CardList10getLargestEv, symObjAddr: 0x47C4, symBinAddr: 0x100019844, symSize: 0x2C4 }
  - { offset: 0x13682, size: 0x8, addend: 0x0, symName: __ZNK8CardList5beginEv, symObjAddr: 0x4A88, symBinAddr: 0x100019B08, symSize: 0xD0 }
  - { offset: 0x136A8, size: 0x8, addend: 0x0, symName: __ZN8CardList8IteratorC1EPNS_4NodeEbPKS_, symObjAddr: 0x4B58, symBinAddr: 0x100019BD8, symSize: 0xD4 }
  - { offset: 0x136FB, size: 0x8, addend: 0x0, symName: __ZNK8CardList6rbeginEv, symObjAddr: 0x4C2C, symBinAddr: 0x100019CAC, symSize: 0xD0 }
  - { offset: 0x13722, size: 0x8, addend: 0x0, symName: __ZNK8CardList3endEv, symObjAddr: 0x4CFC, symBinAddr: 0x100019D7C, symSize: 0xC4 }
  - { offset: 0x13749, size: 0x8, addend: 0x0, symName: __ZNK8CardList4rendEv, symObjAddr: 0x4DC0, symBinAddr: 0x100019E40, symSize: 0xC4 }
  - { offset: 0x13770, size: 0x8, addend: 0x0, symName: __ZN8CardList8IteratorppEv, symObjAddr: 0x4E84, symBinAddr: 0x100019F04, symSize: 0x324 }
  - { offset: 0x13797, size: 0x8, addend: 0x0, symName: __ZN8CardList8IteratormmEv, symObjAddr: 0x51A8, symBinAddr: 0x10001A228, symSize: 0x324 }
  - { offset: 0x137BE, size: 0x8, addend: 0x0, symName: __ZN8CardList8IteratorppEi, symObjAddr: 0x54CC, symBinAddr: 0x10001A54C, symSize: 0xC8 }
  - { offset: 0x137FF, size: 0x8, addend: 0x0, symName: __ZN8CardList8IteratormmEi, symObjAddr: 0x5594, symBinAddr: 0x10001A614, symSize: 0xC8 }
  - { offset: 0x13840, size: 0x8, addend: 0x0, symName: __ZNK8CardList8IteratordeEv, symObjAddr: 0x565C, symBinAddr: 0x10001A6DC, symSize: 0x138 }
  - { offset: 0x13867, size: 0x8, addend: 0x0, symName: __ZNK8CardList8IteratorptEv, symObjAddr: 0x5794, symBinAddr: 0x10001A814, symSize: 0xF4 }
  - { offset: 0x1388E, size: 0x8, addend: 0x0, symName: __ZNK8CardList8IteratoreqERKS0_, symObjAddr: 0x5888, symBinAddr: 0x10001A908, symSize: 0x2B4 }
  - { offset: 0x138C3, size: 0x8, addend: 0x0, symName: __ZNK8CardList8IteratorneERKS0_, symObjAddr: 0x5B3C, symBinAddr: 0x10001ABBC, symSize: 0x2B4 }
  - { offset: 0x138F7, size: 0x8, addend: 0x0, symName: __ZN8CardList4NodeD2Ev, symObjAddr: 0x5DF0, symBinAddr: 0x10001AE70, symSize: 0x78 }
  - { offset: 0x13921, size: 0x8, addend: 0x0, symName: __ZN4CardD1Ev, symObjAddr: 0x5E68, symBinAddr: 0x10001AEE8, symSize: 0x78 }
  - { offset: 0x1394B, size: 0x8, addend: 0x0, symName: __ZN4CardD2Ev, symObjAddr: 0x5EE0, symBinAddr: 0x10001AF60, symSize: 0x84 }
  - { offset: 0x13975, size: 0x8, addend: 0x0, symName: __ZN8CardList4NodeC2ERK4Card, symObjAddr: 0x79D8, symBinAddr: 0x10001AFE4, symSize: 0x184 }
  - { offset: 0x139AB, size: 0x8, addend: 0x0, symName: __ZN4CardC1ERKS_, symObjAddr: 0x7B5C, symBinAddr: 0x10001B168, symSize: 0x80 }
  - { offset: 0x139DE, size: 0x8, addend: 0x0, symName: __ZN4CardC2ERKS_, symObjAddr: 0x7BDC, symBinAddr: 0x10001B1E8, symSize: 0x16C }
  - { offset: 0x13A12, size: 0x8, addend: 0x0, symName: __ZNSt3__16vectorINS_12basic_stringIcNS_11char_traitsIcEENS_9allocatorIcEEEENS4_IS6_EEEC1ERKS8_, symObjAddr: 0x7D48, symBinAddr: 0x10001B354, symSize: 0x80 }
  - { offset: 0x13A4C, size: 0x8, addend: 0x0, symName: __ZNSt3__16vectorINS_12basic_stringIcNS_11char_traitsIcEENS_9allocatorIcEEEENS4_IS6_EEEC2ERKS8_, symObjAddr: 0x7DC8, symBinAddr: 0x10001B3D4, symSize: 0x4B0 }
  - { offset: 0x13A92, size: 0x8, addend: 0x0, symName: __ZNSt3__116allocator_traitsINS_9allocatorINS_12basic_stringIcNS_11char_traitsIcEENS1_IcEEEEEEE37select_on_container_copy_constructionB8ne180100IS7_vvEES7_RKS7_, symObjAddr: 0x8278, symBinAddr: 0x10001B884, symSize: 0x10 }
  - { offset: 0x13ACA, size: 0x8, addend: 0x0, symName: __ZNSt3__117__compressed_pairIPNS_12basic_stringIcNS_11char_traitsIcEENS_9allocatorIcEEEENS4_IS6_EEEC1B8ne180100IDnS8_EEOT_OT0_, symObjAddr: 0x836C, symBinAddr: 0x10001B894, symSize: 0x88 }
  - { offset: 0x13B21, size: 0x8, addend: 0x0, symName: __ZNSt3__16vectorINS_12basic_stringIcNS_11char_traitsIcEENS_9allocatorIcEEEENS4_IS6_EEE16__init_with_sizeB8ne180100IPS6_SA_EEvT_T0_m, symObjAddr: 0x83F4, symBinAddr: 0x10001B91C, symSize: 0x410 }
  - { offset: 0x13B9B, size: 0x8, addend: 0x0, symName: __ZNSt3__117__compressed_pairIPNS_12basic_stringIcNS_11char_traitsIcEENS_9allocatorIcEEEENS4_IS6_EEEC2B8ne180100IDnS8_EEOT_OT0_, symObjAddr: 0x8980, symBinAddr: 0x10001BD2C, symSize: 0x170 }
  - { offset: 0x13BF1, size: 0x8, addend: 0x0, symName: __ZNSt3__122__compressed_pair_elemINS_9allocatorINS_12basic_stringIcNS_11char_traitsIcEENS1_IcEEEEEELi1ELb1EEC2B8ne180100IS7_vEEOT_, symObjAddr: 0x8BAC, symBinAddr: 0x10001BE9C, symSize: 0x58 }
  - { offset: 0x13C32, size: 0x8, addend: 0x0, symName: __ZNSt3__16vectorINS_12basic_stringIcNS_11char_traitsIcEENS_9allocatorIcEEEENS4_IS6_EEE18__construct_at_endIPS6_SA_EEvT_T0_m, symObjAddr: 0x9498, symBinAddr: 0x10001BEF4, symSize: 0x4B8 }
  - { offset: 0x13CEB, size: 0x8, addend: 0x0, symName: __ZNSt3__119__unwrap_range_implIPNS_12basic_stringIcNS_11char_traitsIcEENS_9allocatorIcEEEES7_E8__unwrapB8ne180100ES7_S7_, symObjAddr: 0xCAE4, symBinAddr: 0x10001D01C, symSize: 0x2FC }
  - { offset: 0x13D22, size: 0x8, addend: 0x0, symName: __ZNSt3__14pairIPNS_12basic_stringIcNS_11char_traitsIcEENS_9allocatorIcEEEES7_EC1B8ne180100IS7_S7_Li0EEEOT_OT0_, symObjAddr: 0xCDE0, symBinAddr: 0x10001D318, symSize: 0x88 }
  - { offset: 0x13D7E, size: 0x8, addend: 0x0, symName: __ZNSt3__14pairIPNS_12basic_stringIcNS_11char_traitsIcEENS_9allocatorIcEEEES7_EC2B8ne180100IS7_S7_Li0EEEOT_OT0_, symObjAddr: 0xCE68, symBinAddr: 0x10001D3A0, symSize: 0x210 }
  - { offset: 0x13DDB, size: 0x8, addend: 0x0, symName: __ZNSt3__116allocator_traitsINS_9allocatorINS_12basic_stringIcNS_11char_traitsIcEENS1_IcEEEEEEE9constructB8ne180100IS6_JRS6_EvvEEvRS7_PT_DpOT0_, symObjAddr: 0xD334, symBinAddr: 0x10001D5B0, symSize: 0x80 }
  - { offset: 0x13E30, size: 0x8, addend: 0x0, symName: __ZNSt3__16vectorINS_12basic_stringIcNS_11char_traitsIcEENS_9allocatorIcEEEENS4_IS6_EEEaSB8ne180100ERKS8_, symObjAddr: 0xF58C, symBinAddr: 0x10001D76C, symSize: 0x218 }
  - { offset: 0x13E66, size: 0x8, addend: 0x0, symName: __ZNSt3__16vectorINS_12basic_stringIcNS_11char_traitsIcEENS_9allocatorIcEEEENS4_IS6_EEE19__copy_assign_allocB8ne180100ERKS8_, symObjAddr: 0xF7A4, symBinAddr: 0x10001D984, symSize: 0xBC }
  - { offset: 0x13E9A, size: 0x8, addend: 0x0, symName: __ZNSt3__16vectorINS_12basic_stringIcNS_11char_traitsIcEENS_9allocatorIcEEEENS4_IS6_EEE6assignIPS6_Li0EEEvT_SB_, symObjAddr: 0xF860, symBinAddr: 0x10001DA40, symSize: 0x9C }
  - { offset: 0x13EEE, size: 0x8, addend: 0x0, symName: __ZNSt3__16vectorINS_12basic_stringIcNS_11char_traitsIcEENS_9allocatorIcEEEENS4_IS6_EEE19__copy_assign_allocB8ne180100ERKS8_NS_17integral_constantIbLb0EEE, symObjAddr: 0xF8FC, symBinAddr: 0x10001DADC, symSize: 0x64 }
  - { offset: 0x13F2B, size: 0x8, addend: 0x0, symName: __ZNSt3__16vectorINS_12basic_stringIcNS_11char_traitsIcEENS_9allocatorIcEEEENS4_IS6_EEE18__assign_with_sizeB8ne180100IPS6_SA_EEvT_T0_l, symObjAddr: 0xF960, symBinAddr: 0x10001DB40, symSize: 0x48C }
  - { offset: 0x13FE1, size: 0x8, addend: 0x0, symName: __ZNSt3__16vectorINS_12basic_stringIcNS_11char_traitsIcEENS_9allocatorIcEEEENS4_IS6_EEE17__destruct_at_endB8ne180100EPS6_, symObjAddr: 0x10518, symBinAddr: 0x10001E6F8, symSize: 0x90 }
  - { offset: 0x14024, size: 0x8, addend: 0x0, symName: __ZNSt3__16vectorINS_12basic_stringIcNS_11char_traitsIcEENS_9allocatorIcEEEENS4_IS6_EEE13__vdeallocateEv, symObjAddr: 0x105A8, symBinAddr: 0x10001E788, symSize: 0x244 }
  - { offset: 0x1404B, size: 0x8, addend: 0x0, symName: __ZNKSt3__16vectorINS_12basic_stringIcNS_11char_traitsIcEENS_9allocatorIcEEEENS4_IS6_EEE11__recommendB8ne180100Em, symObjAddr: 0x107EC, symBinAddr: 0x10001E9CC, symSize: 0x44C }
  - { offset: 0x140B0, size: 0x8, addend: 0x0, symName: __ZNKSt3__111__copy_loopINS_17_ClassicAlgPolicyEEclB8ne180100IPNS_12basic_stringIcNS_11char_traitsIcEENS_9allocatorIcEEEESA_SA_EENS_4pairIT_T1_EESC_T0_SD_, symObjAddr: 0x11488, symBinAddr: 0x10001F668, symSize: 0x65C }
  - { offset: 0x14124, size: 0x8, addend: 0x0, symName: __ZNSt3__119__unwrap_range_implIPNS_12basic_stringIcNS_11char_traitsIcEENS_9allocatorIcEEEES7_E8__rewrapB8ne180100ES7_S7_, symObjAddr: 0x11DA8, symBinAddr: 0x10001FF88, symSize: 0x2C }
  - { offset: 0x14155, size: 0x8, addend: 0x0, symName: __ZNSt3__16vectorINS_12basic_stringIcNS_11char_traitsIcEENS_9allocatorIcEEEENS4_IS6_EEE5clearB8ne180100Ev, symObjAddr: 0x11DD4, symBinAddr: 0x10001FFB4, symSize: 0x88 }
  - { offset: 0x14188, size: 0x8, addend: 0x0, symName: __ZN8CardList8IteratorC2EPNS_4NodeEbPKS_, symObjAddr: 0x12240, symBinAddr: 0x100020420, symSize: 0x1C4 }
  - { offset: 0x160F8, size: 0x8, addend: 0x0, symName: _.str, symObjAddr: 0x4D320, symBinAddr: 0x100057460, symSize: 0x0 }
  - { offset: 0x16128, size: 0x8, addend: 0x0, symName: _.str.1, symObjAddr: 0x4D360, symBinAddr: 0x1000574A0, symSize: 0x0 }
  - { offset: 0x16145, size: 0x8, addend: 0x0, symName: _.str.2, symObjAddr: 0x4D380, symBinAddr: 0x1000574C0, symSize: 0x0 }
  - { offset: 0x16162, size: 0x8, addend: 0x0, symName: _.str.3, symObjAddr: 0x4D3C0, symBinAddr: 0x100057500, symSize: 0x0 }
  - { offset: 0x16173, size: 0x8, addend: 0x0, symName: _.str.4, symObjAddr: 0x4D3E0, symBinAddr: 0x100057520, symSize: 0x0 }
  - { offset: 0x16184, size: 0x8, addend: 0x0, symName: _.str.5, symObjAddr: 0x4D400, symBinAddr: 0x100057540, symSize: 0x0 }
  - { offset: 0x161A1, size: 0x8, addend: 0x0, symName: _.str.6, symObjAddr: 0x4D460, symBinAddr: 0x1000575A0, symSize: 0x0 }
  - { offset: 0x161B2, size: 0x8, addend: 0x0, symName: _.str.7, symObjAddr: 0x4D480, symBinAddr: 0x1000575C0, symSize: 0x0 }
  - { offset: 0x161CF, size: 0x8, addend: 0x0, symName: _.str.8, symObjAddr: 0x4D4A0, symBinAddr: 0x1000575E0, symSize: 0x0 }
  - { offset: 0x161EC, size: 0x8, addend: 0x0, symName: _.str.9, symObjAddr: 0x4D4E0, symBinAddr: 0x100057620, symSize: 0x0 }
  - { offset: 0x161FD, size: 0x8, addend: 0x0, symName: _.str.10, symObjAddr: 0x4D500, symBinAddr: 0x100057640, symSize: 0x0 }
  - { offset: 0x1620E, size: 0x8, addend: 0x0, symName: _.str.11, symObjAddr: 0x4D520, symBinAddr: 0x100057660, symSize: 0x0 }
  - { offset: 0x1621F, size: 0x8, addend: 0x0, symName: _.str.12, symObjAddr: 0x4D540, symBinAddr: 0x100057680, symSize: 0x0 }
  - { offset: 0x1623C, size: 0x8, addend: 0x0, symName: _.str.13, symObjAddr: 0x4D5A0, symBinAddr: 0x1000576E0, symSize: 0x0 }
  - { offset: 0x1624D, size: 0x8, addend: 0x0, symName: _.str.14, symObjAddr: 0x4D5C0, symBinAddr: 0x100057700, symSize: 0x0 }
  - { offset: 0x1625E, size: 0x8, addend: 0x0, symName: _.str.15, symObjAddr: 0x4D5E0, symBinAddr: 0x100057720, symSize: 0x0 }
  - { offset: 0x1626F, size: 0x8, addend: 0x0, symName: _.str.16, symObjAddr: 0x4D600, symBinAddr: 0x100057740, symSize: 0x0 }
  - { offset: 0x1628C, size: 0x8, addend: 0x0, symName: _.str.17, symObjAddr: 0x4D660, symBinAddr: 0x1000577A0, symSize: 0x0 }
  - { offset: 0x1629D, size: 0x8, addend: 0x0, symName: _.str.18, symObjAddr: 0x4D680, symBinAddr: 0x1000577C0, symSize: 0x0 }
  - { offset: 0x162AE, size: 0x8, addend: 0x0, symName: _.str.19, symObjAddr: 0x4D6A0, symBinAddr: 0x1000577E0, symSize: 0x0 }
  - { offset: 0x162BF, size: 0x8, addend: 0x0, symName: _.str.20, symObjAddr: 0x4D700, symBinAddr: 0x100057840, symSize: 0x0 }
  - { offset: 0x162D0, size: 0x8, addend: 0x0, symName: _.str.21, symObjAddr: 0x4D740, symBinAddr: 0x100057880, symSize: 0x0 }
  - { offset: 0x162ED, size: 0x8, addend: 0x0, symName: _.str.22, symObjAddr: 0x4D7A0, symBinAddr: 0x1000578E0, symSize: 0x0 }
  - { offset: 0x162FE, size: 0x8, addend: 0x0, symName: _.str.23, symObjAddr: 0x4D7C0, symBinAddr: 0x100057900, symSize: 0x0 }
  - { offset: 0x1630F, size: 0x8, addend: 0x0, symName: _.str.24, symObjAddr: 0x4D820, symBinAddr: 0x100057960, symSize: 0x0 }
  - { offset: 0x1632C, size: 0x8, addend: 0x0, symName: _.str.25, symObjAddr: 0x4D880, symBinAddr: 0x1000579C0, symSize: 0x0 }
  - { offset: 0x1633D, size: 0x8, addend: 0x0, symName: _.str.26, symObjAddr: 0x4D8A0, symBinAddr: 0x1000579E0, symSize: 0x0 }
  - { offset: 0x1635A, size: 0x8, addend: 0x0, symName: _.str.27, symObjAddr: 0x4D900, symBinAddr: 0x100057A40, symSize: 0x0 }
  - { offset: 0x16377, size: 0x8, addend: 0x0, symName: _.str.28, symObjAddr: 0x4D940, symBinAddr: 0x100057A80, symSize: 0x0 }
  - { offset: 0x16388, size: 0x8, addend: 0x0, symName: _.str.29, symObjAddr: 0x4D980, symBinAddr: 0x100057AC0, symSize: 0x0 }
  - { offset: 0x163A5, size: 0x8, addend: 0x0, symName: _.str.30, symObjAddr: 0x4D9C0, symBinAddr: 0x100057B00, symSize: 0x0 }
  - { offset: 0x163C2, size: 0x8, addend: 0x0, symName: _.str.31, symObjAddr: 0x4DA20, symBinAddr: 0x100057B60, symSize: 0x0 }
  - { offset: 0x163D3, size: 0x8, addend: 0x0, symName: _.str.32, symObjAddr: 0x4DA40, symBinAddr: 0x100057B80, symSize: 0x0 }
  - { offset: 0x163E4, size: 0x8, addend: 0x0, symName: _.str.33, symObjAddr: 0x4DA60, symBinAddr: 0x100057BA0, symSize: 0x0 }
  - { offset: 0x16401, size: 0x8, addend: 0x0, symName: _.str.34, symObjAddr: 0x41D60, symBinAddr: 0x100053CA0, symSize: 0x0 }
  - { offset: 0x1641E, size: 0x8, addend: 0x0, symName: _.str.35, symObjAddr: 0x4DAC0, symBinAddr: 0x100057C00, symSize: 0x0 }
  - { offset: 0x1642F, size: 0x8, addend: 0x0, symName: _.str.36, symObjAddr: 0x4DB20, symBinAddr: 0x100057C60, symSize: 0x0 }
  - { offset: 0x1644C, size: 0x8, addend: 0x0, symName: _.str.37, symObjAddr: 0x4DB40, symBinAddr: 0x100057C80, symSize: 0x0 }
  - { offset: 0x16469, size: 0x8, addend: 0x0, symName: _.str.38, symObjAddr: 0x4DBA0, symBinAddr: 0x100057CE0, symSize: 0x0 }
  - { offset: 0x16486, size: 0x8, addend: 0x0, symName: _.str.39, symObjAddr: 0x4DBC0, symBinAddr: 0x100057D00, symSize: 0x0 }
  - { offset: 0x164A3, size: 0x8, addend: 0x0, symName: _.str.40, symObjAddr: 0x4DC20, symBinAddr: 0x100057D60, symSize: 0x0 }
  - { offset: 0x164C0, size: 0x8, addend: 0x0, symName: _.str.41, symObjAddr: 0x4DC40, symBinAddr: 0x100057D80, symSize: 0x0 }
  - { offset: 0x164D1, size: 0x8, addend: 0x0, symName: _.str.42, symObjAddr: 0x4DCA0, symBinAddr: 0x100057DE0, symSize: 0x0 }
  - { offset: 0x164EE, size: 0x8, addend: 0x0, symName: _.str.43, symObjAddr: 0x4DCC0, symBinAddr: 0x100057E00, symSize: 0x0 }
  - { offset: 0x164FF, size: 0x8, addend: 0x0, symName: _.str.44, symObjAddr: 0x4DD20, symBinAddr: 0x100057E60, symSize: 0x0 }
  - { offset: 0x16510, size: 0x8, addend: 0x0, symName: _.str.45, symObjAddr: 0x4DD60, symBinAddr: 0x100057EA0, symSize: 0x0 }
  - { offset: 0x16521, size: 0x8, addend: 0x0, symName: _.str.46, symObjAddr: 0x4DDA0, symBinAddr: 0x100057EE0, symSize: 0x0 }
  - { offset: 0x1653E, size: 0x8, addend: 0x0, symName: _.str.47, symObjAddr: 0x4DE00, symBinAddr: 0x100057F40, symSize: 0x0 }
  - { offset: 0x1654F, size: 0x8, addend: 0x0, symName: _.str.48, symObjAddr: 0x4DE60, symBinAddr: 0x100057FA0, symSize: 0x0 }
  - { offset: 0x1656C, size: 0x8, addend: 0x0, symName: _.str.49, symObjAddr: 0x4DE80, symBinAddr: 0x100057FC0, symSize: 0x0 }
  - { offset: 0x1657D, size: 0x8, addend: 0x0, symName: _.str.50, symObjAddr: 0x4DEA0, symBinAddr: 0x100057FE0, symSize: 0x0 }
  - { offset: 0x1658E, size: 0x8, addend: 0x0, symName: _.str.51, symObjAddr: 0x4DEC0, symBinAddr: 0x100058000, symSize: 0x0 }
  - { offset: 0x1659F, size: 0x8, addend: 0x0, symName: _.str.52, symObjAddr: 0x4DF20, symBinAddr: 0x100058060, symSize: 0x0 }
  - { offset: 0x165B0, size: 0x8, addend: 0x0, symName: _.str.53, symObjAddr: 0x4DF80, symBinAddr: 0x1000580C0, symSize: 0x0 }
  - { offset: 0x165C1, size: 0x8, addend: 0x0, symName: _.str.54, symObjAddr: 0x4DFE0, symBinAddr: 0x100058120, symSize: 0x0 }
  - { offset: 0x165D3, size: 0x8, addend: 0x0, symName: _.str.55, symObjAddr: 0x4E040, symBinAddr: 0x100058180, symSize: 0x0 }
  - { offset: 0x165E5, size: 0x8, addend: 0x0, symName: _.str.56, symObjAddr: 0x4E0A0, symBinAddr: 0x1000581E0, symSize: 0x0 }
  - { offset: 0x16603, size: 0x8, addend: 0x0, symName: _.str.57, symObjAddr: 0x4E100, symBinAddr: 0x100058240, symSize: 0x0 }
  - { offset: 0x16621, size: 0x8, addend: 0x0, symName: _.str.58, symObjAddr: 0x4E160, symBinAddr: 0x1000582A0, symSize: 0x0 }
  - { offset: 0x1663F, size: 0x8, addend: 0x0, symName: _.str.59, symObjAddr: 0x4E1C0, symBinAddr: 0x100058300, symSize: 0x0 }
  - { offset: 0x1665D, size: 0x8, addend: 0x0, symName: _.str.60, symObjAddr: 0x4E220, symBinAddr: 0x100058360, symSize: 0x0 }
  - { offset: 0x1667B, size: 0x8, addend: 0x0, symName: _.str.61, symObjAddr: 0x4E240, symBinAddr: 0x100058380, symSize: 0x0 }
  - { offset: 0x16699, size: 0x8, addend: 0x0, symName: _.str.62, symObjAddr: 0x4E260, symBinAddr: 0x1000583A0, symSize: 0x0 }
  - { offset: 0x166AB, size: 0x8, addend: 0x0, symName: _.str.72, symObjAddr: 0x4E280, symBinAddr: 0x1000583C0, symSize: 0x0 }
  - { offset: 0x166C8, size: 0x8, addend: 0x0, symName: _.str.85, symObjAddr: 0x4E2A0, symBinAddr: 0x1000583E0, symSize: 0x0 }
  - { offset: 0x166E5, size: 0x8, addend: 0x0, symName: _.str.86, symObjAddr: 0x4E2C0, symBinAddr: 0x100058400, symSize: 0x0 }
  - { offset: 0x1CA75, size: 0x8, addend: 0x0, symName: __ZNSt3__17advanceB8ne180100IP4CardllvEEvRT_T0_, symObjAddr: 0x2B124, symBinAddr: 0x10003C9DC, symSize: 0x80 }
  - { offset: 0x1CE37, size: 0x8, addend: 0x0, symName: __ZNSt3__17advanceB8ne180100INS_16reverse_iteratorIPNS_12basic_stringIcNS_11char_traitsIcEENS_9allocatorIcEEEEEEllvEEvRT_T0_, symObjAddr: 0x33CC0, symBinAddr: 0x100044390, symSize: 0x80 }
  - { offset: 0x1D396, size: 0x8, addend: 0x0, symName: __ZNSt3__1neB8ne180100IPK4CardEEbRKNS_11__wrap_iterIT_EES8_, symObjAddr: 0x2268, symBinAddr: 0x10002277C, symSize: 0xC4 }
  - { offset: 0x1D3D9, size: 0x8, addend: 0x0, symName: __ZNSt3__1eqB8ne180100IcNS_11char_traitsIcEENS_9allocatorIcEEEEbRKNS_12basic_stringIT_T0_T1_EEPKS6_, symObjAddr: 0xBED0, symBinAddr: 0x10002C19C, symSize: 0x354 }
  - { offset: 0x1D433, size: 0x8, addend: 0x0, symName: __ZNSt3__1eqB8ne180100INS_12basic_stringIcNS_11char_traitsIcEENS_9allocatorIcEEEENS4_IS6_EEEEbRKNS_6vectorIT_T0_EESD_, symObjAddr: 0xF4B4, symBinAddr: 0x10002F780, symSize: 0x4C8 }
  - { offset: 0x1D494, size: 0x8, addend: 0x0, symName: __ZNSt3__1eqB8ne180100IPK4CardEEbRKNS_11__wrap_iterIT_EES8_, symObjAddr: 0x15858, symBinAddr: 0x100035818, symSize: 0x9C }
  - { offset: 0x1D4D7, size: 0x8, addend: 0x0, symName: __ZNSt3__122__make_exception_guardB8ne180100INS_6vectorI4CardNS_9allocatorIS2_EEE16__destroy_vectorEEENS_28__exception_guard_exceptionsIT_EES8_, symObjAddr: 0x24718, symBinAddr: 0x100035FD0, symSize: 0x2AC }
  - { offset: 0x1D510, size: 0x8, addend: 0x0, symName: __ZNSt3__119__allocate_at_leastB8ne180100INS_9allocatorI4CardEEEENS_19__allocation_resultINS_16allocator_traitsIT_E7pointerEEERS6_m, symObjAddr: 0x26764, symBinAddr: 0x10003801C, symSize: 0x284 }
  - { offset: 0x1D555, size: 0x8, addend: 0x0, symName: __ZNSt3__112__to_addressB8ne180100I4CardEEPT_S3_, symObjAddr: 0x278A0, symBinAddr: 0x100039158, symSize: 0x14 }
  - { offset: 0x1D58A, size: 0x8, addend: 0x0, symName: __ZNSt3__130__uninitialized_allocator_copyB8ne180100INS_9allocatorI4CardEEPKS2_S5_PS2_EET2_RT_T0_T1_S7_, symObjAddr: 0x27C0C, symBinAddr: 0x1000394C4, symSize: 0x32C }
  - { offset: 0x1D630, size: 0x8, addend: 0x0, symName: __ZNSt3__114__unwrap_rangeB8ne180100IPK4CardS3_EEDaT_T0_, symObjAddr: 0x287E4, symBinAddr: 0x10003A09C, symSize: 0x21C }
  - { offset: 0x1D67E, size: 0x8, addend: 0x0, symName: __ZNSt3__135__uninitialized_allocator_copy_implB8ne180100INS_9allocatorI4CardEEPKS2_S5_PS2_EET2_RT_T0_T1_S7_, symObjAddr: 0x28A00, symBinAddr: 0x10003A2B8, symSize: 0x728 }
  - { offset: 0x1D72A, size: 0x8, addend: 0x0, symName: __ZNSt3__113__unwrap_iterB8ne180100IP4CardNS_18__unwrap_iter_implIS2_Lb1EEELi0EEEDTclsrT0_8__unwrapclsr3stdE7declvalIT_EEEES6_, symObjAddr: 0x29128, symBinAddr: 0x10003A9E0, symSize: 0x24 }
  - { offset: 0x1D76E, size: 0x8, addend: 0x0, symName: __ZNSt3__113__rewrap_iterB8ne180100IP4CardS2_NS_18__unwrap_iter_implIS2_Lb1EEEEET_S5_T0_, symObjAddr: 0x2914C, symBinAddr: 0x10003AA04, symSize: 0x48 }
  - { offset: 0x1D8C5, size: 0x8, addend: 0x0, symName: __ZNSt3__113__unwrap_iterB8ne180100IPK4CardNS_18__unwrap_iter_implIS3_Lb1EEELi0EEEDTclsrT0_8__unwrapclsr3stdE7declvalIT_EEEES7_, symObjAddr: 0x29490, symBinAddr: 0x10003AD48, symSize: 0x24 }
  - { offset: 0x1D95C, size: 0x8, addend: 0x0, symName: __ZNSt3__112__to_addressB8ne180100IK4CardEEPT_S4_, symObjAddr: 0x29560, symBinAddr: 0x10003AE18, symSize: 0x14 }
  - { offset: 0x1D991, size: 0x8, addend: 0x0, symName: __ZNSt3__122__make_exception_guardB8ne180100INS_29_AllocatorDestroyRangeReverseINS_9allocatorI4CardEEPS3_EEEENS_28__exception_guard_exceptionsIT_EES8_, symObjAddr: 0x29784, symBinAddr: 0x10003B03C, symSize: 0x22C }
  - { offset: 0x1D9C8, size: 0x8, addend: 0x0, symName: __ZNSt3__114__construct_atB8ne180100I4CardJRKS1_EPS1_EEPT_S6_DpOT0_, symObjAddr: 0x29F98, symBinAddr: 0x10003B850, symSize: 0x7C }
  - { offset: 0x1DA1B, size: 0x8, addend: 0x0, symName: __ZNSt3__112construct_atB8ne180100I4CardJRKS1_EPS1_EEPT_S6_DpOT0_, symObjAddr: 0x2A014, symBinAddr: 0x10003B8CC, symSize: 0xC0 }
  - { offset: 0x1DA6E, size: 0x8, addend: 0x0, symName: __ZNSt3__119__allocator_destroyB8ne180100INS_9allocatorI4CardEENS_16reverse_iteratorIPS2_EES6_EEvRT_T0_T1_, symObjAddr: 0x2A64C, symBinAddr: 0x10003BF04, symSize: 0x2CC }
  - { offset: 0x1DADA, size: 0x8, addend: 0x0, symName: __ZNSt3__1neB8ne180100IP4CardS2_EEbRKNS_16reverse_iteratorIT_EERKNS3_IT0_EE, symObjAddr: 0x2A998, symBinAddr: 0x10003C250, symSize: 0x9C }
  - { offset: 0x1DB26, size: 0x8, addend: 0x0, symName: __ZNSt3__112__to_addressB8ne180100INS_16reverse_iteratorIP4CardEEvEEu7__decayIDTclsr19__to_address_helperIT_EE6__callclsr3stdE7declvalIRKS5_EEEEES7_, symObjAddr: 0x2AA5C, symBinAddr: 0x10003C314, symSize: 0x6C }
  - { offset: 0x1DB5C, size: 0x8, addend: 0x0, symName: __ZNSt3__112__destroy_atB8ne180100I4CardLi0EEEvPT_, symObjAddr: 0x2AD28, symBinAddr: 0x10003C5E0, symSize: 0x6C }
  - { offset: 0x1DBBC, size: 0x8, addend: 0x0, symName: __ZNSt3__14prevB8ne180100IP4CardLi0EEET_S3_NS_15iterator_traitsIS3_E15difference_typeE, symObjAddr: 0x2AEBC, symBinAddr: 0x10003C774, symSize: 0x268 }
  - { offset: 0x1DC0A, size: 0x8, addend: 0x0, symName: __ZNSt3__19__advanceB8ne180100IP4CardEEvRT_NS_15iterator_traitsIS3_E15difference_typeENS_26random_access_iterator_tagE, symObjAddr: 0x2B1A4, symBinAddr: 0x10003CA5C, symSize: 0x1A4 }
  - { offset: 0x1DCA6, size: 0x8, addend: 0x0, symName: __ZNSt3__1eqB8ne180100IcNS_11char_traitsIcEEEEbNS_17basic_string_viewIT_T0_EENS_13type_identityIS6_E4typeE, symObjAddr: 0x2CA08, symBinAddr: 0x10003E2C0, symSize: 0x338 }
  - { offset: 0x1DCFD, size: 0x8, addend: 0x0, symName: __ZNSt3__128__char_traits_length_checkedB8ne180100INS_11char_traitsIcEEEEmPKNT_9char_typeE, symObjAddr: 0x2D960, symBinAddr: 0x10003F1E4, symSize: 0x24 }
  - { offset: 0x1DD34, size: 0x8, addend: 0x0, symName: __ZNSt3__114__construct_atB8ne180100INS_12basic_stringIcNS_11char_traitsIcEENS_9allocatorIcEEEEJS6_EPS6_EEPT_S9_DpOT0_, symObjAddr: 0x2EC3C, symBinAddr: 0x10004019C, symSize: 0x7C }
  - { offset: 0x1DD87, size: 0x8, addend: 0x0, symName: __ZNSt3__112construct_atB8ne180100INS_12basic_stringIcNS_11char_traitsIcEENS_9allocatorIcEEEEJS6_EPS6_EEPT_S9_DpOT0_, symObjAddr: 0x2ECB8, symBinAddr: 0x100040218, symSize: 0xC0 }
  - { offset: 0x1DDDA, size: 0x8, addend: 0x0, symName: __ZNSt3__142__uninitialized_allocator_move_if_noexceptB8ne180100INS_9allocatorINS_12basic_stringIcNS_11char_traitsIcEENS1_IcEEEEEENS_16reverse_iteratorIPS6_EESA_SA_EET2_RT_T0_T1_SB_, symObjAddr: 0x31538, symBinAddr: 0x100041C08, symSize: 0x618 }
  - { offset: 0x1DE8F, size: 0x8, addend: 0x0, symName: __ZNSt3__14swapB8ne180100IPNS_12basic_stringIcNS_11char_traitsIcEENS_9allocatorIcEEEEEENS_9enable_ifIXaasr21is_move_constructibleIT_EE5valuesr18is_move_assignableIS9_EE5valueEvE4typeERS9_SC_, symObjAddr: 0x31B50, symBinAddr: 0x100042220, symSize: 0x1C0 }
  - { offset: 0x1DEE0, size: 0x8, addend: 0x0, symName: __ZNSt3__122__make_exception_guardB8ne180100INS_29_AllocatorDestroyRangeReverseINS_9allocatorINS_12basic_stringIcNS_11char_traitsIcEENS2_IcEEEEEENS_16reverse_iteratorIPS7_EEEEEENS_28__exception_guard_exceptionsIT_EESE_, symObjAddr: 0x31D10, symBinAddr: 0x1000423E0, symSize: 0x22C }
  - { offset: 0x1DF17, size: 0x8, addend: 0x0, symName: __ZNSt3__119__allocator_destroyB8ne180100INS_9allocatorINS_12basic_stringIcNS_11char_traitsIcEENS1_IcEEEEEENS_16reverse_iteratorINS8_IPS6_EEEESB_EEvRT_T0_T1_, symObjAddr: 0x32BB4, symBinAddr: 0x100043284, symSize: 0x1A4 }
  - { offset: 0x1DF7C, size: 0x8, addend: 0x0, symName: __ZNSt3__1neB8ne180100INS_16reverse_iteratorIPNS_12basic_stringIcNS_11char_traitsIcEENS_9allocatorIcEEEEEES9_EEbRKNS1_IT_EERKNS1_IT0_EE, symObjAddr: 0x32FEC, symBinAddr: 0x1000436BC, symSize: 0x314 }
  - { offset: 0x1DFCA, size: 0x8, addend: 0x0, symName: __ZNSt3__112__to_addressB8ne180100INS_16reverse_iteratorINS1_IPNS_12basic_stringIcNS_11char_traitsIcEENS_9allocatorIcEEEEEEEEvEEu7__decayIDTclsr19__to_address_helperIT_EE6__callclsr3stdE7declvalIRKSB_EEEEESD_, symObjAddr: 0x33300, symBinAddr: 0x1000439D0, symSize: 0x6C }
  - { offset: 0x1E029, size: 0x8, addend: 0x0, symName: __ZNSt3__14prevB8ne180100INS_16reverse_iteratorIPNS_12basic_stringIcNS_11char_traitsIcEENS_9allocatorIcEEEEEELi0EEET_SA_NS_15iterator_traitsISA_E15difference_typeE, symObjAddr: 0x33A0C, symBinAddr: 0x1000440DC, symSize: 0x2B4 }
  - { offset: 0x1E077, size: 0x8, addend: 0x0, symName: __ZNSt3__19__advanceB8ne180100INS_16reverse_iteratorIPNS_12basic_stringIcNS_11char_traitsIcEENS_9allocatorIcEEEEEEEEvRT_NS_15iterator_traitsISA_E15difference_typeENS_26random_access_iterator_tagE, symObjAddr: 0x33D40, symBinAddr: 0x100044410, symSize: 0x7C }
  - { offset: 0x1E0C0, size: 0x8, addend: 0x0, symName: __ZNSt3__15equalB8ne180100INS_11__wrap_iterIPKNS_12basic_stringIcNS_11char_traitsIcEENS_9allocatorIcEEEEEESA_EEbT_SB_T0_, symObjAddr: 0x34C48, symBinAddr: 0x100045318, symSize: 0x404 }
  - { offset: 0x1E126, size: 0x8, addend: 0x0, symName: __ZNSt3__15equalB8ne180100INS_11__wrap_iterIPKNS_12basic_stringIcNS_11char_traitsIcEENS_9allocatorIcEEEEEESA_NS_10__equal_toEEEbT_SC_T0_T1_, symObjAddr: 0x355A0, symBinAddr: 0x100045C70, symSize: 0x444 }
  - { offset: 0x1E1A8, size: 0x8, addend: 0x0, symName: __ZNSt3__117__equal_iter_implB8ne180100IPKNS_12basic_stringIcNS_11char_traitsIcEENS_9allocatorIcEEEES8_NS_10__equal_toEEEbT_SA_T0_RT1_, symObjAddr: 0x359E4, symBinAddr: 0x1000460B4, symSize: 0x260 }
  - { offset: 0x1E219, size: 0x8, addend: 0x0, symName: __ZNSt3__113__unwrap_iterB8ne180100INS_11__wrap_iterIPKNS_12basic_stringIcNS_11char_traitsIcEENS_9allocatorIcEEEEEENS_18__unwrap_iter_implISA_Lb1EEELi0EEEDTclsrT0_8__unwrapclsr3stdE7declvalIT_EEEESE_, symObjAddr: 0x35C44, symBinAddr: 0x100046314, symSize: 0x264 }
  - { offset: 0x1E2EF, size: 0x8, addend: 0x0, symName: __ZNSt3__112__to_addressB8ne180100INS_11__wrap_iterIPKNS_12basic_stringIcNS_11char_traitsIcEENS_9allocatorIcEEEEEEvEEu7__decayIDTclsr19__to_address_helperIT_EE6__callclsr3stdE7declvalIRKSB_EEEEESD_, symObjAddr: 0x365D4, symBinAddr: 0x100046850, symSize: 0x6C }
  - { offset: 0x1E3CA, size: 0x8, addend: 0x0, symName: __ZNSt3__110to_addressB8ne180100IcEEDaPT_, symObjAddr: 0x3BFA4, symBinAddr: 0x100049C3C, symSize: 0x24 }
  - { offset: 0x1F787, size: 0x8, addend: 0x0, symName: __ZNSt3__16vectorINS_12basic_stringIcNS_11char_traitsIcEENS_9allocatorIcEEEENS4_IS6_EEE26__swap_out_circular_bufferERNS_14__split_bufferIS6_RS7_EE, symObjAddr: 0x2F8DC, symBinAddr: 0x100040368, symSize: 0x854 }
  - { offset: 0x1F842, size: 0x8, addend: 0x0, symName: __Z12capturePrintRK8CardList, symObjAddr: 0x0, symBinAddr: 0x100020634, symSize: 0xAC8 }
  - { offset: 0x1F8B8, size: 0x8, addend: 0x0, symName: __ZNSt3__119basic_ostringstreamIcNS_11char_traitsIcEENS_9allocatorIcEEEC1B8ne180100Ev, symObjAddr: 0xBE8, symBinAddr: 0x1000210FC, symSize: 0x374 }
  - { offset: 0x1F8E1, size: 0x8, addend: 0x0, symName: __ZNSt3__19basic_iosIcNS_11char_traitsIcEEE5rdbufB8ne180100EPNS_15basic_streambufIcS2_EE, symObjAddr: 0xF5C, symBinAddr: 0x100021470, symSize: 0x1AC }
  - { offset: 0x1F926, size: 0x8, addend: 0x0, symName: __ZNKSt3__119basic_ostringstreamIcNS_11char_traitsIcEENS_9allocatorIcEEE5rdbufB8ne180100Ev, symObjAddr: 0x1108, symBinAddr: 0x10002161C, symSize: 0xF4 }
  - { offset: 0x1F94B, size: 0x8, addend: 0x0, symName: __ZNKRSt3__119basic_ostringstreamIcNS_11char_traitsIcEENS_9allocatorIcEEE3strB8ne180100Ev, symObjAddr: 0x11FC, symBinAddr: 0x100021710, symSize: 0x1DC }
  - { offset: 0x1F975, size: 0x8, addend: 0x0, symName: __ZNSt3__119basic_ostringstreamIcNS_11char_traitsIcEENS_9allocatorIcEEED1Ev, symObjAddr: 0x13D8, symBinAddr: 0x1000218EC, symSize: 0x8C }
  - { offset: 0x1F9A0, size: 0x8, addend: 0x0, symName: __Z12cardToStringRK4Card, symObjAddr: 0x1464, symBinAddr: 0x100021978, symSize: 0x474 }
  - { offset: 0x1F9DF, size: 0x8, addend: 0x0, symName: __Z9loadCardsR8CardListRKNSt3__16vectorI4CardNS1_9allocatorIS3_EEEE, symObjAddr: 0x18D8, symBinAddr: 0x100021DEC, symSize: 0x43C }
  - { offset: 0x1FA73, size: 0x8, addend: 0x0, symName: __ZNKSt3__16vectorI4CardNS_9allocatorIS1_EEE5beginB8ne180100Ev, symObjAddr: 0x1D14, symBinAddr: 0x100022228, symSize: 0x2A8 }
  - { offset: 0x1FA9B, size: 0x8, addend: 0x0, symName: __ZNKSt3__16vectorI4CardNS_9allocatorIS1_EEE3endB8ne180100Ev, symObjAddr: 0x1FBC, symBinAddr: 0x1000224D0, symSize: 0x2AC }
  - { offset: 0x1FAC3, size: 0x8, addend: 0x0, symName: __ZNKSt3__111__wrap_iterIPK4CardEdeB8ne180100Ev, symObjAddr: 0x232C, symBinAddr: 0x100022840, symSize: 0xF4 }
  - { offset: 0x1FAE8, size: 0x8, addend: 0x0, symName: __ZNSt3__111__wrap_iterIPK4CardEppB8ne180100Ev, symObjAddr: 0x2420, symBinAddr: 0x100022934, symSize: 0x1A8 }
  - { offset: 0x1FB0C, size: 0x8, addend: 0x0, symName: __Z8playGameR8CardListS0_RNSt3__113basic_ostreamIcNS1_11char_traitsIcEEEE, symObjAddr: 0x25C8, symBinAddr: 0x100022ADC, symSize: 0xEB4 }
  - { offset: 0x1FBF2, size: 0x8, addend: 0x0, symName: __Z10testInsertR10TestRunner, symObjAddr: 0x3644, symBinAddr: 0x100023990, symSize: 0x19F4 }
  - { offset: 0x1FD95, size: 0x8, addend: 0x0, symName: __ZN10TestRunner5checkEbRKNSt3__112basic_stringIcNS0_11char_traitsIcEENS0_9allocatorIcEEEE, symObjAddr: 0x50B8, symBinAddr: 0x100025384, symSize: 0x4C0 }
  - { offset: 0x1FDD5, size: 0x8, addend: 0x0, symName: __Z12testContainsR10TestRunner, symObjAddr: 0x5578, symBinAddr: 0x100025844, symSize: 0x1BA8 }
  - { offset: 0x1FEF4, size: 0x8, addend: 0x0, symName: __ZNSt3__16vectorI4CardNS_9allocatorIS1_EEEC1B8ne180100ESt16initializer_listIS1_E, symObjAddr: 0x7120, symBinAddr: 0x1000273EC, symSize: 0x294 }
  - { offset: 0x1FF32, size: 0x8, addend: 0x0, symName: __ZNSt3__16vectorI4CardNS_9allocatorIS1_EEED1B8ne180100Ev, symObjAddr: 0x73B4, symBinAddr: 0x100027680, symSize: 0x78 }
  - { offset: 0x1FF5A, size: 0x8, addend: 0x0, symName: __Z9testEraseR10TestRunner, symObjAddr: 0x742C, symBinAddr: 0x1000276F8, symSize: 0x28AC }
  - { offset: 0x200F1, size: 0x8, addend: 0x0, symName: __Z9testPrintR10TestRunner, symObjAddr: 0x9CD8, symBinAddr: 0x100029FA4, symSize: 0x21F8 }
  - { offset: 0x20210, size: 0x8, addend: 0x0, symName: __Z12testIteratorR10TestRunner, symObjAddr: 0xC224, symBinAddr: 0x10002C4F0, symSize: 0x2F40 }
  - { offset: 0x203BA, size: 0x8, addend: 0x0, symName: __ZNSt3__16vectorINS_12basic_stringIcNS_11char_traitsIcEENS_9allocatorIcEEEENS4_IS6_EEEC1B8ne180100Ev, symObjAddr: 0xF164, symBinAddr: 0x10002F430, symSize: 0x78 }
  - { offset: 0x203E3, size: 0x8, addend: 0x0, symName: __ZNSt3__16vectorINS_12basic_stringIcNS_11char_traitsIcEENS_9allocatorIcEEEENS4_IS6_EEE9push_backB8ne180100EOS6_, symObjAddr: 0xF1DC, symBinAddr: 0x10002F4A8, symSize: 0x2D8 }
  - { offset: 0x20427, size: 0x8, addend: 0x0, symName: __Z12testPlayGameR10TestRunner, symObjAddr: 0xFC88, symBinAddr: 0x10002FC48, symSize: 0x4D3C }
  - { offset: 0x20547, size: 0x8, addend: 0x0, symName: __ZNKSt3__112basic_stringIcNS_11char_traitsIcEENS_9allocatorIcEEE5emptyB8ne180100Ev, symObjAddr: 0x149C4, symBinAddr: 0x100034984, symSize: 0x78 }
  - { offset: 0x2056C, size: 0x8, addend: 0x0, symName: _main, symObjAddr: 0x14A3C, symBinAddr: 0x1000349FC, symSize: 0x63C }
  - { offset: 0x2059A, size: 0x8, addend: 0x0, symName: __ZN10TestRunnerC1Ev, symObjAddr: 0x15078, symBinAddr: 0x100035038, symSize: 0x78 }
  - { offset: 0x205C5, size: 0x8, addend: 0x0, symName: __ZNSt3__119basic_ostringstreamIcNS_11char_traitsIcEENS_9allocatorIcEEED2Ev, symObjAddr: 0x150F0, symBinAddr: 0x1000350B0, symSize: 0x1E8 }
  - { offset: 0x205FD, size: 0x8, addend: 0x0, symName: __ZTv0_n24_NSt3__119basic_ostringstreamIcNS_11char_traitsIcEENS_9allocatorIcEEED1Ev, symObjAddr: 0x152D8, symBinAddr: 0x100035298, symSize: 0xB0 }
  - { offset: 0x20619, size: 0x8, addend: 0x0, symName: __ZNSt3__115basic_stringbufIcNS_11char_traitsIcEENS_9allocatorIcEEED1Ev, symObjAddr: 0x15388, symBinAddr: 0x100035348, symSize: 0x78 }
  - { offset: 0x20645, size: 0x8, addend: 0x0, symName: __ZNSt3__115basic_stringbufIcNS_11char_traitsIcEENS_9allocatorIcEEED2Ev, symObjAddr: 0x15400, symBinAddr: 0x1000353C0, symSize: 0xD4 }
  - { offset: 0x20671, size: 0x8, addend: 0x0, symName: __ZNKSt3__16vectorI4CardNS_9allocatorIS1_EEE11__make_iterB8ne180100EPKS1_, symObjAddr: 0x154D4, symBinAddr: 0x100035494, symSize: 0x23C }
  - { offset: 0x206A6, size: 0x8, addend: 0x0, symName: __ZNSt3__111__wrap_iterIPK4CardEC1B8ne180100ES3_, symObjAddr: 0x15710, symBinAddr: 0x1000356D0, symSize: 0x80 }
  - { offset: 0x206DC, size: 0x8, addend: 0x0, symName: __ZNSt3__111__wrap_iterIPK4CardEC2B8ne180100ES3_, symObjAddr: 0x15790, symBinAddr: 0x100035750, symSize: 0xC8 }
  - { offset: 0x20713, size: 0x8, addend: 0x0, symName: __ZNKSt3__111__wrap_iterIPK4CardE4baseB8ne180100Ev, symObjAddr: 0x158F4, symBinAddr: 0x1000358B4, symSize: 0xAC }
  - { offset: 0x20783, size: 0x8, addend: 0x0, symName: __ZNSt3__16vectorI4CardNS_9allocatorIS1_EEEC2B8ne180100ESt16initializer_listIS1_E, symObjAddr: 0x240A8, symBinAddr: 0x100035960, symSize: 0x5E8 }
  - { offset: 0x207DA, size: 0x8, addend: 0x0, symName: __ZNSt3__117__compressed_pairIP4CardNS_9allocatorIS1_EEEC1B8ne180100IDnNS_18__default_init_tagEEEOT_OT0_, symObjAddr: 0x24690, symBinAddr: 0x100035F48, symSize: 0x88 }
  - { offset: 0x20830, size: 0x8, addend: 0x0, symName: __ZNSt3__16vectorI4CardNS_9allocatorIS1_EEE16__destroy_vectorC1B8ne180100ERS4_, symObjAddr: 0x249C4, symBinAddr: 0x10003627C, symSize: 0x80 }
  - { offset: 0x20868, size: 0x8, addend: 0x0, symName: __ZNKSt16initializer_listI4CardE4sizeB8ne180100Ev, symObjAddr: 0x24A44, symBinAddr: 0x1000362FC, symSize: 0xB0 }
  - { offset: 0x2088D, size: 0x8, addend: 0x0, symName: __ZNSt3__16vectorI4CardNS_9allocatorIS1_EEE11__vallocateB8ne180100Em, symObjAddr: 0x24AF4, symBinAddr: 0x1000363AC, symSize: 0x5E8 }
  - { offset: 0x208D6, size: 0x8, addend: 0x0, symName: __ZNSt3__16vectorI4CardNS_9allocatorIS1_EEE18__construct_at_endIPKS1_S7_EEvT_T0_m, symObjAddr: 0x250DC, symBinAddr: 0x100036994, symSize: 0x4B8 }
  - { offset: 0x20953, size: 0x8, addend: 0x0, symName: __ZNKSt16initializer_listI4CardE5beginB8ne180100Ev, symObjAddr: 0x25594, symBinAddr: 0x100036E4C, symSize: 0xAC }
  - { offset: 0x20978, size: 0x8, addend: 0x0, symName: __ZNKSt16initializer_listI4CardE3endB8ne180100Ev, symObjAddr: 0x25640, symBinAddr: 0x100036EF8, symSize: 0x1C8 }
  - { offset: 0x2099D, size: 0x8, addend: 0x0, symName: __ZNSt3__128__exception_guard_exceptionsINS_6vectorI4CardNS_9allocatorIS2_EEE16__destroy_vectorEE10__completeB8ne180100Ev, symObjAddr: 0x25808, symBinAddr: 0x1000370C0, symSize: 0xD8 }
  - { offset: 0x209C1, size: 0x8, addend: 0x0, symName: __ZNSt3__128__exception_guard_exceptionsINS_6vectorI4CardNS_9allocatorIS2_EEE16__destroy_vectorEED1B8ne180100Ev, symObjAddr: 0x258E0, symBinAddr: 0x100037198, symSize: 0x78 }
  - { offset: 0x209E9, size: 0x8, addend: 0x0, symName: __ZNSt3__117__compressed_pairIP4CardNS_9allocatorIS1_EEEC2B8ne180100IDnNS_18__default_init_tagEEEOT_OT0_, symObjAddr: 0x25958, symBinAddr: 0x100037210, symSize: 0x140 }
  - { offset: 0x20A3F, size: 0x8, addend: 0x0, symName: __ZNSt3__122__compressed_pair_elemIP4CardLi0ELb0EEC2B8ne180100IDnvEEOT_, symObjAddr: 0x25A98, symBinAddr: 0x100037350, symSize: 0xBC }
  - { offset: 0x20A7F, size: 0x8, addend: 0x0, symName: __ZNSt3__122__compressed_pair_elemINS_9allocatorI4CardEELi1ELb1EEC2B8ne180100ENS_18__default_init_tagE, symObjAddr: 0x25B54, symBinAddr: 0x10003740C, symSize: 0x84 }
  - { offset: 0x20AB1, size: 0x8, addend: 0x0, symName: __ZNSt3__19allocatorI4CardEC2B8ne180100Ev, symObjAddr: 0x25BD8, symBinAddr: 0x100037490, symSize: 0x84 }
  - { offset: 0x20AD9, size: 0x8, addend: 0x0, symName: __ZNSt3__116__non_trivial_ifILb1ENS_9allocatorI4CardEEEC2B8ne180100Ev, symObjAddr: 0x25C5C, symBinAddr: 0x100037514, symSize: 0x54 }
  - { offset: 0x20B01, size: 0x8, addend: 0x0, symName: __ZNSt3__128__exception_guard_exceptionsINS_6vectorI4CardNS_9allocatorIS2_EEE16__destroy_vectorEEC1B8ne180100ES6_, symObjAddr: 0x25CB0, symBinAddr: 0x100037568, symSize: 0x284 }
  - { offset: 0x20B3C, size: 0x8, addend: 0x0, symName: __ZNSt3__128__exception_guard_exceptionsINS_6vectorI4CardNS_9allocatorIS2_EEE16__destroy_vectorEEC2B8ne180100ES6_, symObjAddr: 0x25F34, symBinAddr: 0x1000377EC, symSize: 0x2B4 }
  - { offset: 0x20B77, size: 0x8, addend: 0x0, symName: __ZNSt3__16vectorI4CardNS_9allocatorIS1_EEE16__destroy_vectorC2B8ne180100ERS4_, symObjAddr: 0x261E8, symBinAddr: 0x100037AA0, symSize: 0x108 }
  - { offset: 0x20BAF, size: 0x8, addend: 0x0, symName: __ZNKSt3__16vectorI4CardNS_9allocatorIS1_EEE8max_sizeEv, symObjAddr: 0x262F0, symBinAddr: 0x100037BA8, symSize: 0x3F4 }
  - { offset: 0x20BD7, size: 0x8, addend: 0x0, symName: __ZNKSt3__16vectorI4CardNS_9allocatorIS1_EEE20__throw_length_errorB8ne180100Ev, symObjAddr: 0x266E4, symBinAddr: 0x100037F9C, symSize: 0x80 }
  - { offset: 0x20BFC, size: 0x8, addend: 0x0, symName: __ZNSt3__16vectorI4CardNS_9allocatorIS1_EEE7__allocB8ne180100Ev, symObjAddr: 0x269E8, symBinAddr: 0x1000382A0, symSize: 0xE4 }
  - { offset: 0x20C21, size: 0x8, addend: 0x0, symName: __ZNSt3__16vectorI4CardNS_9allocatorIS1_EEE9__end_capB8ne180100Ev, symObjAddr: 0x26ACC, symBinAddr: 0x100038384, symSize: 0x100 }
  - { offset: 0x20C46, size: 0x8, addend: 0x0, symName: __ZNKSt3__16vectorI4CardNS_9allocatorIS1_EEE14__annotate_newB8ne180100Em, symObjAddr: 0x26BCC, symBinAddr: 0x100038484, symSize: 0x268 }
  - { offset: 0x20C84, size: 0x8, addend: 0x0, symName: __ZNSt3__116allocator_traitsINS_9allocatorI4CardEEE8max_sizeB8ne180100IS3_vvEEmRKS3_, symObjAddr: 0x26E34, symBinAddr: 0x1000386EC, symSize: 0x54 }
  - { offset: 0x20CB0, size: 0x8, addend: 0x0, symName: __ZNKSt3__16vectorI4CardNS_9allocatorIS1_EEE7__allocB8ne180100Ev, symObjAddr: 0x26E88, symBinAddr: 0x100038740, symSize: 0xE4 }
  - { offset: 0x20CD5, size: 0x8, addend: 0x0, symName: __ZNKSt3__117__compressed_pairIP4CardNS_9allocatorIS1_EEE6secondB8ne180100Ev, symObjAddr: 0x26F6C, symBinAddr: 0x100038824, symSize: 0x108 }
  - { offset: 0x20CFA, size: 0x8, addend: 0x0, symName: __ZNKSt3__122__compressed_pair_elemINS_9allocatorI4CardEELi1ELb1EE5__getB8ne180100Ev, symObjAddr: 0x27074, symBinAddr: 0x10003892C, symSize: 0x74 }
  - { offset: 0x20D1F, size: 0x8, addend: 0x0, symName: __ZNSt3__19allocatorI4CardE8allocateB8ne180100Em, symObjAddr: 0x270E8, symBinAddr: 0x1000389A0, symSize: 0xD0 }
  - { offset: 0x20D52, size: 0x8, addend: 0x0, symName: __ZNSt3__117__compressed_pairIP4CardNS_9allocatorIS1_EEE6secondB8ne180100Ev, symObjAddr: 0x271B8, symBinAddr: 0x100038A70, symSize: 0x108 }
  - { offset: 0x20D77, size: 0x8, addend: 0x0, symName: __ZNSt3__122__compressed_pair_elemINS_9allocatorI4CardEELi1ELb1EE5__getB8ne180100Ev, symObjAddr: 0x272C0, symBinAddr: 0x100038B78, symSize: 0x74 }
  - { offset: 0x20D9C, size: 0x8, addend: 0x0, symName: __ZNSt3__117__compressed_pairIP4CardNS_9allocatorIS1_EEE5firstB8ne180100Ev, symObjAddr: 0x27334, symBinAddr: 0x100038BEC, symSize: 0x124 }
  - { offset: 0x20DC1, size: 0x8, addend: 0x0, symName: __ZNSt3__122__compressed_pair_elemIP4CardLi0ELb0EE5__getB8ne180100Ev, symObjAddr: 0x27458, symBinAddr: 0x100038D10, symSize: 0xAC }
  - { offset: 0x20DE6, size: 0x8, addend: 0x0, symName: __ZNKSt3__16vectorI4CardNS_9allocatorIS1_EEE31__annotate_contiguous_containerB8ne180100EPKvS6_, symObjAddr: 0x27504, symBinAddr: 0x100038DBC, symSize: 0x1A8 }
  - { offset: 0x20E47, size: 0x8, addend: 0x0, symName: __ZNKSt3__16vectorI4CardNS_9allocatorIS1_EEE4dataB8ne180100Ev, symObjAddr: 0x276AC, symBinAddr: 0x100038F64, symSize: 0xB0 }
  - { offset: 0x20E6C, size: 0x8, addend: 0x0, symName: __ZNKSt3__16vectorI4CardNS_9allocatorIS1_EEE8capacityB8ne180100Ev, symObjAddr: 0x2775C, symBinAddr: 0x100039014, symSize: 0x144 }
  - { offset: 0x20E91, size: 0x8, addend: 0x0, symName: __ZNKSt3__16vectorI4CardNS_9allocatorIS1_EEE9__end_capB8ne180100Ev, symObjAddr: 0x278B4, symBinAddr: 0x10003916C, symSize: 0x100 }
  - { offset: 0x20EB6, size: 0x8, addend: 0x0, symName: __ZNKSt3__117__compressed_pairIP4CardNS_9allocatorIS1_EEE5firstB8ne180100Ev, symObjAddr: 0x279B4, symBinAddr: 0x10003926C, symSize: 0x124 }
  - { offset: 0x20EDB, size: 0x8, addend: 0x0, symName: __ZNKSt3__122__compressed_pair_elemIP4CardLi0ELb0EE5__getB8ne180100Ev, symObjAddr: 0x27AD8, symBinAddr: 0x100039390, symSize: 0xAC }
  - { offset: 0x20F18, size: 0x8, addend: 0x0, symName: __ZNSt3__16vectorI4CardNS_9allocatorIS1_EEE21_ConstructTransactionC1B8ne180100ERS4_m, symObjAddr: 0x27B84, symBinAddr: 0x10003943C, symSize: 0x88 }
  - { offset: 0x20F5E, size: 0x8, addend: 0x0, symName: __ZNSt3__16vectorI4CardNS_9allocatorIS1_EEE21_ConstructTransactionD1B8ne180100Ev, symObjAddr: 0x27F38, symBinAddr: 0x1000397F0, symSize: 0x78 }
  - { offset: 0x20F86, size: 0x8, addend: 0x0, symName: __ZNSt3__16vectorI4CardNS_9allocatorIS1_EEE21_ConstructTransactionC2B8ne180100ERS4_m, symObjAddr: 0x27FB0, symBinAddr: 0x100039868, symSize: 0x3E0 }
  - { offset: 0x20FCD, size: 0x8, addend: 0x0, symName: __ZNKSt3__16vectorI4CardNS_9allocatorIS1_EEE19__annotate_increaseB8ne180100Em, symObjAddr: 0x28390, symBinAddr: 0x100039C48, symSize: 0x35C }
  - { offset: 0x21001, size: 0x8, addend: 0x0, symName: __ZNKSt3__16vectorI4CardNS_9allocatorIS1_EEE4sizeB8ne180100Ev, symObjAddr: 0x286EC, symBinAddr: 0x100039FA4, symSize: 0xF8 }
  - { offset: 0x2103F, size: 0x8, addend: 0x0, symName: __ZNSt3__119__unwrap_range_implIPK4CardS3_E8__unwrapB8ne180100ES3_S3_, symObjAddr: 0x29194, symBinAddr: 0x10003AA4C, symSize: 0x2FC }
  - { offset: 0x21076, size: 0x8, addend: 0x0, symName: __ZNSt3__14pairIPK4CardS3_EC1B8ne180100IS3_S3_Li0EEEOT_OT0_, symObjAddr: 0x294B4, symBinAddr: 0x10003AD6C, symSize: 0x88 }
  - { offset: 0x210D3, size: 0x8, addend: 0x0, symName: __ZNSt3__118__unwrap_iter_implIPK4CardLb1EE8__unwrapB8ne180100ES3_, symObjAddr: 0x2953C, symBinAddr: 0x10003ADF4, symSize: 0x24 }
  - { offset: 0x210F5, size: 0x8, addend: 0x0, symName: __ZNSt3__14pairIPK4CardS3_EC2B8ne180100IS3_S3_Li0EEEOT_OT0_, symObjAddr: 0x29574, symBinAddr: 0x10003AE2C, symSize: 0x210 }
  - { offset: 0x21151, size: 0x8, addend: 0x0, symName: __ZNSt3__129_AllocatorDestroyRangeReverseINS_9allocatorI4CardEEPS2_EC1B8ne180100ERS3_RS4_S7_, symObjAddr: 0x299B0, symBinAddr: 0x10003B268, symSize: 0x90 }
  - { offset: 0x211A7, size: 0x8, addend: 0x0, symName: __ZNSt3__116allocator_traitsINS_9allocatorI4CardEEE9constructB8ne180100IS2_JRKS2_EvvEEvRS3_PT_DpOT0_, symObjAddr: 0x29A40, symBinAddr: 0x10003B2F8, symSize: 0x80 }
  - { offset: 0x211FC, size: 0x8, addend: 0x0, symName: __ZNSt3__128__exception_guard_exceptionsINS_29_AllocatorDestroyRangeReverseINS_9allocatorI4CardEEPS3_EEE10__completeB8ne180100Ev, symObjAddr: 0x29AC0, symBinAddr: 0x10003B378, symSize: 0xD8 }
  - { offset: 0x21220, size: 0x8, addend: 0x0, symName: __ZNSt3__128__exception_guard_exceptionsINS_29_AllocatorDestroyRangeReverseINS_9allocatorI4CardEEPS3_EEED1B8ne180100Ev, symObjAddr: 0x29B98, symBinAddr: 0x10003B450, symSize: 0x78 }
  - { offset: 0x21248, size: 0x8, addend: 0x0, symName: __ZNSt3__128__exception_guard_exceptionsINS_29_AllocatorDestroyRangeReverseINS_9allocatorI4CardEEPS3_EEEC1B8ne180100ES6_, symObjAddr: 0x29C10, symBinAddr: 0x10003B4C8, symSize: 0x84 }
  - { offset: 0x2127F, size: 0x8, addend: 0x0, symName: __ZNSt3__128__exception_guard_exceptionsINS_29_AllocatorDestroyRangeReverseINS_9allocatorI4CardEEPS3_EEEC2B8ne180100ES6_, symObjAddr: 0x29C94, symBinAddr: 0x10003B54C, symSize: 0xF8 }
  - { offset: 0x212B6, size: 0x8, addend: 0x0, symName: __ZNSt3__129_AllocatorDestroyRangeReverseINS_9allocatorI4CardEEPS2_EC2B8ne180100ERS3_RS4_S7_, symObjAddr: 0x29D8C, symBinAddr: 0x10003B644, symSize: 0x20C }
  - { offset: 0x2130B, size: 0x8, addend: 0x0, symName: __ZNSt3__128__exception_guard_exceptionsINS_29_AllocatorDestroyRangeReverseINS_9allocatorI4CardEEPS3_EEED2B8ne180100Ev, symObjAddr: 0x2A0D4, symBinAddr: 0x10003B98C, symSize: 0x17C }
  - { offset: 0x21334, size: 0x8, addend: 0x0, symName: __ZNKSt3__129_AllocatorDestroyRangeReverseINS_9allocatorI4CardEEPS2_EclB8ne180100Ev, symObjAddr: 0x2A250, symBinAddr: 0x10003BB08, symSize: 0x3FC }
  - { offset: 0x21359, size: 0x8, addend: 0x0, symName: __ZNSt3__116reverse_iteratorIP4CardEC1B8ne180100ES2_, symObjAddr: 0x2A918, symBinAddr: 0x10003C1D0, symSize: 0x80 }
  - { offset: 0x21390, size: 0x8, addend: 0x0, symName: __ZNSt3__116allocator_traitsINS_9allocatorI4CardEEE7destroyB8ne180100IS2_vvEEvRS3_PT_, symObjAddr: 0x2AA34, symBinAddr: 0x10003C2EC, symSize: 0x28 }
  - { offset: 0x213CB, size: 0x8, addend: 0x0, symName: __ZNSt3__116reverse_iteratorIP4CardEppB8ne180100Ev, symObjAddr: 0x2AAC8, symBinAddr: 0x10003C380, symSize: 0x1B0 }
  - { offset: 0x213F0, size: 0x8, addend: 0x0, symName: __ZNKSt3__116reverse_iteratorIP4CardE4baseB8ne180100Ev, symObjAddr: 0x2AC78, symBinAddr: 0x10003C530, symSize: 0xB0 }
  - { offset: 0x2141A, size: 0x8, addend: 0x0, symName: __ZNSt3__119__to_address_helperINS_16reverse_iteratorIP4CardEEvE6__callB8ne180100ERKS4_, symObjAddr: 0x2AD94, symBinAddr: 0x10003C64C, symSize: 0x70 }
  - { offset: 0x2143D, size: 0x8, addend: 0x0, symName: __ZNKSt3__116reverse_iteratorIP4CardEptB8ne180100Ev, symObjAddr: 0x2AE04, symBinAddr: 0x10003C6BC, symSize: 0xB8 }
  - { offset: 0x21461, size: 0x8, addend: 0x0, symName: __ZNSt3__116reverse_iteratorIP4CardEC2B8ne180100ES2_, symObjAddr: 0x2B348, symBinAddr: 0x10003CC00, symSize: 0x10C }
  - { offset: 0x21498, size: 0x8, addend: 0x0, symName: __ZNSt3__118__unwrap_iter_implIP4CardLb1EE8__unwrapB8ne180100ES2_, symObjAddr: 0x2B454, symBinAddr: 0x10003CD0C, symSize: 0x24 }
  - { offset: 0x214BB, size: 0x8, addend: 0x0, symName: __ZNSt3__118__unwrap_iter_implIP4CardLb1EE8__rewrapB8ne180100ES2_S2_, symObjAddr: 0x2B478, symBinAddr: 0x10003CD30, symSize: 0x140 }
  - { offset: 0x214EB, size: 0x8, addend: 0x0, symName: __ZNSt3__16vectorI4CardNS_9allocatorIS1_EEE21_ConstructTransactionD2B8ne180100Ev, symObjAddr: 0x2B5B8, symBinAddr: 0x10003CE70, symSize: 0x390 }
  - { offset: 0x21514, size: 0x8, addend: 0x0, symName: __ZNKSt3__16vectorI4CardNS_9allocatorIS1_EEE17__annotate_shrinkB8ne180100Em, symObjAddr: 0x2B948, symBinAddr: 0x10003D200, symSize: 0x268 }
  - { offset: 0x21547, size: 0x8, addend: 0x0, symName: __ZNSt3__128__exception_guard_exceptionsINS_6vectorI4CardNS_9allocatorIS2_EEE16__destroy_vectorEED2B8ne180100Ev, symObjAddr: 0x2BBB0, symBinAddr: 0x10003D468, symSize: 0x17C }
  - { offset: 0x21570, size: 0x8, addend: 0x0, symName: __ZNSt3__16vectorI4CardNS_9allocatorIS1_EEE16__destroy_vectorclB8ne180100Ev, symObjAddr: 0x2BD2C, symBinAddr: 0x10003D5E4, symSize: 0x43C }
  - { offset: 0x21595, size: 0x8, addend: 0x0, symName: __ZNSt3__16vectorI4CardNS_9allocatorIS1_EEE7__clearB8ne180100Ev, symObjAddr: 0x2C168, symBinAddr: 0x10003DA20, symSize: 0xB0 }
  - { offset: 0x215BA, size: 0x8, addend: 0x0, symName: __ZNKSt3__16vectorI4CardNS_9allocatorIS1_EEE17__annotate_deleteB8ne180100Ev, symObjAddr: 0x2C218, symBinAddr: 0x10003DAD0, symSize: 0x278 }
  - { offset: 0x215DF, size: 0x8, addend: 0x0, symName: __ZNSt3__116allocator_traitsINS_9allocatorI4CardEEE10deallocateB8ne180100ERS3_PS2_m, symObjAddr: 0x2C490, symBinAddr: 0x10003DD48, symSize: 0x34 }
  - { offset: 0x21621, size: 0x8, addend: 0x0, symName: __ZNSt3__16vectorI4CardNS_9allocatorIS1_EEE22__base_destruct_at_endB8ne180100EPS1_, symObjAddr: 0x2C4C4, symBinAddr: 0x10003DD7C, symSize: 0x1FC }
  - { offset: 0x21664, size: 0x8, addend: 0x0, symName: __ZNSt3__19allocatorI4CardE10deallocateB8ne180100EPS1_m, symObjAddr: 0x2C6C0, symBinAddr: 0x10003DF78, symSize: 0x7C }
  - { offset: 0x216A4, size: 0x8, addend: 0x0, symName: __ZNSt3__16vectorI4CardNS_9allocatorIS1_EEED2B8ne180100Ev, symObjAddr: 0x2C73C, symBinAddr: 0x10003DFF4, symSize: 0x2CC }
  - { offset: 0x216CE, size: 0x8, addend: 0x0, symName: __ZNKSt3__112basic_stringIcNS_11char_traitsIcEENS_9allocatorIcEEEcvNS_17basic_string_viewIcS2_EEB8ne180100Ev, symObjAddr: 0x2CD40, symBinAddr: 0x10003E5F8, symSize: 0x264 }
  - { offset: 0x216F3, size: 0x8, addend: 0x0, symName: __ZNSt3__117basic_string_viewIcNS_11char_traitsIcEEEC1B8ne180100EPKc, symObjAddr: 0x2CFA4, symBinAddr: 0x10003E85C, symSize: 0x80 }
  - { offset: 0x2172B, size: 0x8, addend: 0x0, symName: __ZNKSt3__117basic_string_viewIcNS_11char_traitsIcEEE4sizeB8ne180100Ev, symObjAddr: 0x2D024, symBinAddr: 0x10003E8DC, symSize: 0xB0 }
  - { offset: 0x21750, size: 0x8, addend: 0x0, symName: __ZNKSt3__117basic_string_viewIcNS_11char_traitsIcEEE7compareES3_, symObjAddr: 0x2D0D4, symBinAddr: 0x10003E98C, symSize: 0x4FC }
  - { offset: 0x217A9, size: 0x8, addend: 0x0, symName: __ZNKSt3__117basic_string_viewIcNS_11char_traitsIcEEE4dataB8ne180100Ev, symObjAddr: 0x2D604, symBinAddr: 0x10003EE88, symSize: 0xAC }
  - { offset: 0x217CD, size: 0x8, addend: 0x0, symName: __ZNSt3__117basic_string_viewIcNS_11char_traitsIcEEEC1B8ne180100EPKcm, symObjAddr: 0x2D6B0, symBinAddr: 0x10003EF34, symSize: 0x88 }
  - { offset: 0x21813, size: 0x8, addend: 0x0, symName: __ZNSt3__117basic_string_viewIcNS_11char_traitsIcEEEC2B8ne180100EPKcm, symObjAddr: 0x2D738, symBinAddr: 0x10003EFBC, symSize: 0x110 }
  - { offset: 0x21859, size: 0x8, addend: 0x0, symName: __ZNSt3__117basic_string_viewIcNS_11char_traitsIcEEEC2B8ne180100EPKc, symObjAddr: 0x2D848, symBinAddr: 0x10003F0CC, symSize: 0x118 }
  - { offset: 0x21890, size: 0x8, addend: 0x0, symName: __ZNSt3__16vectorINS_12basic_stringIcNS_11char_traitsIcEENS_9allocatorIcEEEENS4_IS6_EEEC2B8ne180100Ev, symObjAddr: 0x2D984, symBinAddr: 0x10003F208, symSize: 0x37C }
  - { offset: 0x218BF, size: 0x8, addend: 0x0, symName: __ZNSt3__16vectorINS_12basic_stringIcNS_11char_traitsIcEENS_9allocatorIcEEEENS4_IS6_EEE22__construct_one_at_endB8ne180100IJS6_EEEvDpOT_, symObjAddr: 0x2E024, symBinAddr: 0x10003F584, symSize: 0x578 }
  - { offset: 0x21913, size: 0x8, addend: 0x0, symName: __ZNSt3__16vectorINS_12basic_stringIcNS_11char_traitsIcEENS_9allocatorIcEEEENS4_IS6_EEE21__push_back_slow_pathIS6_EEPS6_OT_, symObjAddr: 0x2E59C, symBinAddr: 0x10003FAFC, symSize: 0x620 }
  - { offset: 0x21977, size: 0x8, addend: 0x0, symName: __ZNSt3__116allocator_traitsINS_9allocatorINS_12basic_stringIcNS_11char_traitsIcEENS1_IcEEEEEEE9constructB8ne180100IS6_JS6_EvvEEvRS7_PT_DpOT0_, symObjAddr: 0x2EBBC, symBinAddr: 0x10004011C, symSize: 0x80 }
  - { offset: 0x219CC, size: 0x8, addend: 0x0, symName: __ZNSt3__114__split_bufferINS_12basic_stringIcNS_11char_traitsIcEENS_9allocatorIcEEEERNS4_IS6_EEEC1EmmS8_, symObjAddr: 0x2F84C, symBinAddr: 0x1000402D8, symSize: 0x90 }
  - { offset: 0x21A21, size: 0x8, addend: 0x0, symName: __ZNSt3__114__split_bufferINS_12basic_stringIcNS_11char_traitsIcEENS_9allocatorIcEEEERNS4_IS6_EEED1Ev, symObjAddr: 0x30130, symBinAddr: 0x100040BBC, symSize: 0x78 }
  - { offset: 0x21A4C, size: 0x8, addend: 0x0, symName: __ZNSt3__114__split_bufferINS_12basic_stringIcNS_11char_traitsIcEENS_9allocatorIcEEEERNS4_IS6_EEEC2EmmS8_, symObjAddr: 0x30564, symBinAddr: 0x100040C34, symSize: 0x7D8 }
  - { offset: 0x21AC5, size: 0x8, addend: 0x0, symName: __ZNSt3__117__compressed_pairIPNS_12basic_stringIcNS_11char_traitsIcEENS_9allocatorIcEEEERNS4_IS6_EEEC1B8ne180100IDnS9_EEOT_OT0_, symObjAddr: 0x30D3C, symBinAddr: 0x10004140C, symSize: 0x88 }
  - { offset: 0x21B1C, size: 0x8, addend: 0x0, symName: __ZNSt3__114__split_bufferINS_12basic_stringIcNS_11char_traitsIcEENS_9allocatorIcEEEERNS4_IS6_EEE7__allocB8ne180100Ev, symObjAddr: 0x30DC4, symBinAddr: 0x100041494, symSize: 0xE4 }
  - { offset: 0x21B41, size: 0x8, addend: 0x0, symName: __ZNSt3__114__split_bufferINS_12basic_stringIcNS_11char_traitsIcEENS_9allocatorIcEEEERNS4_IS6_EEE9__end_capB8ne180100Ev, symObjAddr: 0x30EA8, symBinAddr: 0x100041578, symSize: 0x100 }
  - { offset: 0x21B65, size: 0x8, addend: 0x0, symName: __ZNSt3__117__compressed_pairIPNS_12basic_stringIcNS_11char_traitsIcEENS_9allocatorIcEEEERNS4_IS6_EEEC2B8ne180100IDnS9_EEOT_OT0_, symObjAddr: 0x30FA8, symBinAddr: 0x100041678, symSize: 0x198 }
  - { offset: 0x21BBB, size: 0x8, addend: 0x0, symName: __ZNSt3__122__compressed_pair_elemIRNS_9allocatorINS_12basic_stringIcNS_11char_traitsIcEENS1_IcEEEEEELi1ELb0EEC2B8ne180100IS8_vEEOT_, symObjAddr: 0x31140, symBinAddr: 0x100041810, symSize: 0xEC }
  - { offset: 0x21BFC, size: 0x8, addend: 0x0, symName: __ZNSt3__117__compressed_pairIPNS_12basic_stringIcNS_11char_traitsIcEENS_9allocatorIcEEEERNS4_IS6_EEE6secondB8ne180100Ev, symObjAddr: 0x3122C, symBinAddr: 0x1000418FC, symSize: 0x110 }
  - { offset: 0x21C21, size: 0x8, addend: 0x0, symName: __ZNSt3__122__compressed_pair_elemIRNS_9allocatorINS_12basic_stringIcNS_11char_traitsIcEENS1_IcEEEEEELi1ELb0EE5__getB8ne180100Ev, symObjAddr: 0x3133C, symBinAddr: 0x100041A0C, symSize: 0xD8 }
  - { offset: 0x21C46, size: 0x8, addend: 0x0, symName: __ZNSt3__117__compressed_pairIPNS_12basic_stringIcNS_11char_traitsIcEENS_9allocatorIcEEEERNS4_IS6_EEE5firstB8ne180100Ev, symObjAddr: 0x31414, symBinAddr: 0x100041AE4, symSize: 0x124 }
  - { offset: 0x21C6A, size: 0x8, addend: 0x0, symName: __ZNSt3__129_AllocatorDestroyRangeReverseINS_9allocatorINS_12basic_stringIcNS_11char_traitsIcEENS1_IcEEEEEENS_16reverse_iteratorIPS6_EEEC1B8ne180100ERS7_RSA_SD_, symObjAddr: 0x31F3C, symBinAddr: 0x10004260C, symSize: 0x90 }
  - { offset: 0x21CC0, size: 0x8, addend: 0x0, symName: __ZNKSt3__116reverse_iteratorIPNS_12basic_stringIcNS_11char_traitsIcEENS_9allocatorIcEEEEEdeB8ne180100Ev, symObjAddr: 0x31FCC, symBinAddr: 0x10004269C, symSize: 0x184 }
  - { offset: 0x21CF3, size: 0x8, addend: 0x0, symName: __ZNSt3__128__exception_guard_exceptionsINS_29_AllocatorDestroyRangeReverseINS_9allocatorINS_12basic_stringIcNS_11char_traitsIcEENS2_IcEEEEEENS_16reverse_iteratorIPS7_EEEEE10__completeB8ne180100Ev, symObjAddr: 0x32150, symBinAddr: 0x100042820, symSize: 0xD8 }
  - { offset: 0x21D17, size: 0x8, addend: 0x0, symName: __ZNSt3__128__exception_guard_exceptionsINS_29_AllocatorDestroyRangeReverseINS_9allocatorINS_12basic_stringIcNS_11char_traitsIcEENS2_IcEEEEEENS_16reverse_iteratorIPS7_EEEEED1B8ne180100Ev, symObjAddr: 0x32228, symBinAddr: 0x1000428F8, symSize: 0x78 }
  - { offset: 0x21D3F, size: 0x8, addend: 0x0, symName: __ZNSt3__128__exception_guard_exceptionsINS_29_AllocatorDestroyRangeReverseINS_9allocatorINS_12basic_stringIcNS_11char_traitsIcEENS2_IcEEEEEENS_16reverse_iteratorIPS7_EEEEEC1B8ne180100ESC_, symObjAddr: 0x322A0, symBinAddr: 0x100042970, symSize: 0x84 }
  - { offset: 0x21D76, size: 0x8, addend: 0x0, symName: __ZNSt3__128__exception_guard_exceptionsINS_29_AllocatorDestroyRangeReverseINS_9allocatorINS_12basic_stringIcNS_11char_traitsIcEENS2_IcEEEEEENS_16reverse_iteratorIPS7_EEEEEC2B8ne180100ESC_, symObjAddr: 0x32324, symBinAddr: 0x1000429F4, symSize: 0xF8 }
  - { offset: 0x21DAD, size: 0x8, addend: 0x0, symName: __ZNSt3__129_AllocatorDestroyRangeReverseINS_9allocatorINS_12basic_stringIcNS_11char_traitsIcEENS1_IcEEEEEENS_16reverse_iteratorIPS6_EEEC2B8ne180100ERS7_RSA_SD_, symObjAddr: 0x3241C, symBinAddr: 0x100042AEC, symSize: 0x20C }
  - { offset: 0x21E02, size: 0x8, addend: 0x0, symName: __ZNSt3__128__exception_guard_exceptionsINS_29_AllocatorDestroyRangeReverseINS_9allocatorINS_12basic_stringIcNS_11char_traitsIcEENS2_IcEEEEEENS_16reverse_iteratorIPS7_EEEEED2B8ne180100Ev, symObjAddr: 0x32628, symBinAddr: 0x100042CF8, symSize: 0x17C }
  - { offset: 0x21E2B, size: 0x8, addend: 0x0, symName: __ZNKSt3__129_AllocatorDestroyRangeReverseINS_9allocatorINS_12basic_stringIcNS_11char_traitsIcEENS1_IcEEEEEENS_16reverse_iteratorIPS6_EEEclB8ne180100Ev, symObjAddr: 0x327A4, symBinAddr: 0x100042E74, symSize: 0x410 }
  - { offset: 0x21E50, size: 0x8, addend: 0x0, symName: __ZNSt3__116reverse_iteratorINS0_IPNS_12basic_stringIcNS_11char_traitsIcEENS_9allocatorIcEEEEEEEC1B8ne180100ES8_, symObjAddr: 0x32D58, symBinAddr: 0x100043428, symSize: 0x294 }
  - { offset: 0x21E8C, size: 0x8, addend: 0x0, symName: __ZNSt3__116reverse_iteratorINS0_IPNS_12basic_stringIcNS_11char_traitsIcEENS_9allocatorIcEEEEEEEppB8ne180100Ev, symObjAddr: 0x3336C, symBinAddr: 0x100043A3C, symSize: 0x100 }
  - { offset: 0x21EB1, size: 0x8, addend: 0x0, symName: __ZNKSt3__116reverse_iteratorINS0_IPNS_12basic_stringIcNS_11char_traitsIcEENS_9allocatorIcEEEEEEE4baseB8ne180100Ev, symObjAddr: 0x3346C, symBinAddr: 0x100043B3C, symSize: 0x250 }
  - { offset: 0x21EDC, size: 0x8, addend: 0x0, symName: __ZNSt3__119__to_address_helperINS_16reverse_iteratorINS1_IPNS_12basic_stringIcNS_11char_traitsIcEENS_9allocatorIcEEEEEEEEvE6__callB8ne180100ERKSA_, symObjAddr: 0x336BC, symBinAddr: 0x100043D8C, symSize: 0x70 }
  - { offset: 0x21EFF, size: 0x8, addend: 0x0, symName: __ZNKSt3__116reverse_iteratorINS0_IPNS_12basic_stringIcNS_11char_traitsIcEENS_9allocatorIcEEEEEEEptB8ne180100Ev, symObjAddr: 0x3372C, symBinAddr: 0x100043DFC, symSize: 0x2E0 }
  - { offset: 0x21F25, size: 0x8, addend: 0x0, symName: __ZNSt3__116reverse_iteratorIPNS_12basic_stringIcNS_11char_traitsIcEENS_9allocatorIcEEEEEpLB8ne180100El, symObjAddr: 0x33DBC, symBinAddr: 0x10004448C, symSize: 0x240 }
  - { offset: 0x21F58, size: 0x8, addend: 0x0, symName: __ZNSt3__116reverse_iteratorIPNS_12basic_stringIcNS_11char_traitsIcEENS_9allocatorIcEEEEEmmB8ne180100Ev, symObjAddr: 0x33FFC, symBinAddr: 0x1000446CC, symSize: 0x1B0 }
  - { offset: 0x21F7C, size: 0x8, addend: 0x0, symName: __ZNSt3__116reverse_iteratorINS0_IPNS_12basic_stringIcNS_11char_traitsIcEENS_9allocatorIcEEEEEEEC2B8ne180100ES8_, symObjAddr: 0x341AC, symBinAddr: 0x10004487C, symSize: 0x27C }
  - { offset: 0x21FB8, size: 0x8, addend: 0x0, symName: __ZNSt3__114__split_bufferINS_12basic_stringIcNS_11char_traitsIcEENS_9allocatorIcEEEERNS4_IS6_EEED2Ev, symObjAddr: 0x34428, symBinAddr: 0x100044AF8, symSize: 0x16C }
  - { offset: 0x21FE3, size: 0x8, addend: 0x0, symName: __ZNSt3__114__split_bufferINS_12basic_stringIcNS_11char_traitsIcEENS_9allocatorIcEEEERNS4_IS6_EEE5clearB8ne180100Ev, symObjAddr: 0x34594, symBinAddr: 0x100044C64, symSize: 0xB4 }
  - { offset: 0x22008, size: 0x8, addend: 0x0, symName: __ZNKSt3__114__split_bufferINS_12basic_stringIcNS_11char_traitsIcEENS_9allocatorIcEEEERNS4_IS6_EEE8capacityB8ne180100Ev, symObjAddr: 0x34648, symBinAddr: 0x100044D18, symSize: 0x144 }
  - { offset: 0x2202D, size: 0x8, addend: 0x0, symName: __ZNSt3__114__split_bufferINS_12basic_stringIcNS_11char_traitsIcEENS_9allocatorIcEEEERNS4_IS6_EEE17__destruct_at_endB8ne180100EPS6_, symObjAddr: 0x3478C, symBinAddr: 0x100044E5C, symSize: 0x74 }
  - { offset: 0x22060, size: 0x8, addend: 0x0, symName: __ZNSt3__114__split_bufferINS_12basic_stringIcNS_11char_traitsIcEENS_9allocatorIcEEEERNS4_IS6_EEE17__destruct_at_endB8ne180100EPS6_NS_17integral_constantIbLb0EEE, symObjAddr: 0x34800, symBinAddr: 0x100044ED0, symSize: 0x224 }
  - { offset: 0x2209F, size: 0x8, addend: 0x0, symName: __ZNKSt3__114__split_bufferINS_12basic_stringIcNS_11char_traitsIcEENS_9allocatorIcEEEERNS4_IS6_EEE9__end_capB8ne180100Ev, symObjAddr: 0x34A24, symBinAddr: 0x1000450F4, symSize: 0x100 }
  - { offset: 0x220C4, size: 0x8, addend: 0x0, symName: __ZNKSt3__117__compressed_pairIPNS_12basic_stringIcNS_11char_traitsIcEENS_9allocatorIcEEEERNS4_IS6_EEE5firstB8ne180100Ev, symObjAddr: 0x34B24, symBinAddr: 0x1000451F4, symSize: 0x124 }
  - { offset: 0x220E9, size: 0x8, addend: 0x0, symName: __ZNKSt3__16vectorINS_12basic_stringIcNS_11char_traitsIcEENS_9allocatorIcEEEENS4_IS6_EEE5beginB8ne180100Ev, symObjAddr: 0x3504C, symBinAddr: 0x10004571C, symSize: 0x2A8 }
  - { offset: 0x22111, size: 0x8, addend: 0x0, symName: __ZNKSt3__16vectorINS_12basic_stringIcNS_11char_traitsIcEENS_9allocatorIcEEEENS4_IS6_EEE3endB8ne180100Ev, symObjAddr: 0x352F4, symBinAddr: 0x1000459C4, symSize: 0x2AC }
  - { offset: 0x22143, size: 0x8, addend: 0x0, symName: __ZNKSt3__110__equal_toclB8ne180100INS_12basic_stringIcNS_11char_traitsIcEENS_9allocatorIcEEEES7_EEbRKT_RKT0_, symObjAddr: 0x35EA8, symBinAddr: 0x100046578, symSize: 0xF0 }
  - { offset: 0x22196, size: 0x8, addend: 0x0, symName: __ZNSt3__118__unwrap_iter_implINS_11__wrap_iterIPKNS_12basic_stringIcNS_11char_traitsIcEENS_9allocatorIcEEEEEELb1EE8__unwrapB8ne180100ESA_, symObjAddr: 0x363EC, symBinAddr: 0x100046668, symSize: 0x1E8 }
  - { offset: 0x221C7, size: 0x8, addend: 0x0, symName: __ZNSt3__119__to_address_helperINS_11__wrap_iterIPKNS_12basic_stringIcNS_11char_traitsIcEENS_9allocatorIcEEEEEEvE6__callB8ne180100ERKSA_, symObjAddr: 0x36640, symBinAddr: 0x1000468BC, symSize: 0x1F8 }
  - { offset: 0x221EB, size: 0x8, addend: 0x0, symName: __ZNSt3__114pointer_traitsINS_11__wrap_iterIPKNS_12basic_stringIcNS_11char_traitsIcEENS_9allocatorIcEEEEEEE10to_addressB8ne180100ESA_, symObjAddr: 0x36838, symBinAddr: 0x100046AB4, symSize: 0x1EC }
  - { offset: 0x22212, size: 0x8, addend: 0x0, symName: __ZNKSt3__111__wrap_iterIPKNS_12basic_stringIcNS_11char_traitsIcEENS_9allocatorIcEEEEE4baseB8ne180100Ev, symObjAddr: 0x36A38, symBinAddr: 0x100046CA0, symSize: 0xAC }
  - { offset: 0x22237, size: 0x8, addend: 0x0, symName: __ZNKSt3__16vectorINS_12basic_stringIcNS_11char_traitsIcEENS_9allocatorIcEEEENS4_IS6_EEE11__make_iterB8ne180100EPKS6_, symObjAddr: 0x36AE4, symBinAddr: 0x100046D4C, symSize: 0x23C }
  - { offset: 0x2226C, size: 0x8, addend: 0x0, symName: __ZNSt3__111__wrap_iterIPKNS_12basic_stringIcNS_11char_traitsIcEENS_9allocatorIcEEEEEC1B8ne180100ES8_, symObjAddr: 0x36D20, symBinAddr: 0x100046F88, symSize: 0x80 }
  - { offset: 0x222A2, size: 0x8, addend: 0x0, symName: __ZNSt3__111__wrap_iterIPKNS_12basic_stringIcNS_11char_traitsIcEENS_9allocatorIcEEEEEC2B8ne180100ES8_, symObjAddr: 0x36DA0, symBinAddr: 0x100047008, symSize: 0xC8 }
  - { offset: 0x222D8, size: 0x8, addend: 0x0, symName: __ZN10TestRunnerC2Ev, symObjAddr: 0x39300, symBinAddr: 0x1000470D0, symSize: 0x140 }
  - { offset: 0x22302, size: 0x8, addend: 0x0, symName: __ZNSt3__19basic_iosIcNS_11char_traitsIcEEEC2B8ne180100Ev, symObjAddr: 0x39578, symBinAddr: 0x100047210, symSize: 0x110 }
  - { offset: 0x2232A, size: 0x8, addend: 0x0, symName: __ZNSt3__113basic_ostreamIcNS_11char_traitsIcEEEC2B8ne180100EPNS_15basic_streambufIcS2_EE, symObjAddr: 0x39688, symBinAddr: 0x100047320, symSize: 0x380 }
  - { offset: 0x2236C, size: 0x8, addend: 0x0, symName: __ZNSt3__115basic_stringbufIcNS_11char_traitsIcEENS_9allocatorIcEEEC1B8ne180100Ej, symObjAddr: 0x39A08, symBinAddr: 0x1000476A0, symSize: 0x80 }
  - { offset: 0x223A3, size: 0x8, addend: 0x0, symName: __ZNSt3__18ios_baseC2B8ne180100Ev, symObjAddr: 0x39A88, symBinAddr: 0x100047720, symSize: 0xC4 }
  - { offset: 0x223CC, size: 0x8, addend: 0x0, symName: __ZNSt3__19basic_iosIcNS_11char_traitsIcEEE4initB8ne180100EPNS_15basic_streambufIcS2_EE, symObjAddr: 0x39B4C, symBinAddr: 0x1000477E4, symSize: 0x2C8 }
  - { offset: 0x22401, size: 0x8, addend: 0x0, symName: __ZNSt3__115basic_stringbufIcNS_11char_traitsIcEENS_9allocatorIcEEEC2B8ne180100Ej, symObjAddr: 0x39E14, symBinAddr: 0x100047AAC, symSize: 0x1C4 }
  - { offset: 0x22438, size: 0x8, addend: 0x0, symName: __ZNSt3__112basic_stringIcNS_11char_traitsIcEENS_9allocatorIcEEEC1B8ne180100Ev, symObjAddr: 0x39FD8, symBinAddr: 0x100047C70, symSize: 0x78 }
  - { offset: 0x22460, size: 0x8, addend: 0x0, symName: __ZNSt3__112basic_stringIcNS_11char_traitsIcEENS_9allocatorIcEEEC2B8ne180100Ev, symObjAddr: 0x3A050, symBinAddr: 0x100047CE8, symSize: 0x2AC }
  - { offset: 0x2248E, size: 0x8, addend: 0x0, symName: __ZNSt3__117__compressed_pairINS_12basic_stringIcNS_11char_traitsIcEENS_9allocatorIcEEE5__repES5_EC1B8ne180100INS_16__value_init_tagENS_18__default_init_tagEEEOT_OT0_, symObjAddr: 0x3A2FC, symBinAddr: 0x100047F94, symSize: 0x88 }
  - { offset: 0x224E4, size: 0x8, addend: 0x0, symName: __ZNSt3__117__compressed_pairINS_12basic_stringIcNS_11char_traitsIcEENS_9allocatorIcEEE5__repES5_EC2B8ne180100INS_16__value_init_tagENS_18__default_init_tagEEEOT_OT0_, symObjAddr: 0x3A384, symBinAddr: 0x10004801C, symSize: 0xF4 }
  - { offset: 0x2253A, size: 0x8, addend: 0x0, symName: __ZNSt3__122__compressed_pair_elemINS_12basic_stringIcNS_11char_traitsIcEENS_9allocatorIcEEE5__repELi0ELb0EEC2B8ne180100ENS_16__value_init_tagE, symObjAddr: 0x3A478, symBinAddr: 0x100048110, symSize: 0x80 }
  - { offset: 0x2256D, size: 0x8, addend: 0x0, symName: __ZNSt3__18ios_base5rdbufB8ne180100EPv, symObjAddr: 0x3A4F8, symBinAddr: 0x100048190, symSize: 0x1C0 }
  - { offset: 0x225A1, size: 0x8, addend: 0x0, symName: __ZNKRSt3__115basic_stringbufIcNS_11char_traitsIcEENS_9allocatorIcEEE3strB8ne180100Ev, symObjAddr: 0x3A6B8, symBinAddr: 0x100048350, symSize: 0x374 }
  - { offset: 0x225C7, size: 0x8, addend: 0x0, symName: __ZNKSt3__115basic_stringbufIcNS_11char_traitsIcEENS_9allocatorIcEEE3strB8ne180100IS4_EENS_12basic_stringIcS2_T_EERKS8_, symObjAddr: 0x3AA2C, symBinAddr: 0x1000486C4, symSize: 0x374 }
  - { offset: 0x22606, size: 0x8, addend: 0x0, symName: __ZNKSt3__112basic_stringIcNS_11char_traitsIcEENS_9allocatorIcEEE13get_allocatorB8ne180100Ev, symObjAddr: 0x3ADA0, symBinAddr: 0x100048A38, symSize: 0x6C }
  - { offset: 0x2262B, size: 0x8, addend: 0x0, symName: __ZNKSt3__115basic_stringbufIcNS_11char_traitsIcEENS_9allocatorIcEEE4viewB8ne180100Ev, symObjAddr: 0x3AE0C, symBinAddr: 0x100048AA4, symSize: 0xA14 }
  - { offset: 0x22652, size: 0x8, addend: 0x0, symName: __ZNSt3__112basic_stringIcNS_11char_traitsIcEENS_9allocatorIcEEEC1INS_17basic_string_viewIcS2_EELi0EEERKT_RKS4_, symObjAddr: 0x3B820, symBinAddr: 0x1000494B8, symSize: 0x88 }
  - { offset: 0x226A8, size: 0x8, addend: 0x0, symName: __ZNKSt3__115basic_streambufIcNS_11char_traitsIcEEE4pptrB8ne180100Ev, symObjAddr: 0x3B8A8, symBinAddr: 0x100049540, symSize: 0x138 }
  - { offset: 0x226CD, size: 0x8, addend: 0x0, symName: __ZNKSt3__115basic_streambufIcNS_11char_traitsIcEEE5pbaseB8ne180100Ev, symObjAddr: 0x3B9E0, symBinAddr: 0x100049678, symSize: 0x138 }
  - { offset: 0x226F6, size: 0x8, addend: 0x0, symName: __ZNSt3__117basic_string_viewIcNS_11char_traitsIcEEEC1B8ne180100IPcS5_EET_T0_, symObjAddr: 0x3BB18, symBinAddr: 0x1000497B0, symSize: 0x88 }
  - { offset: 0x2274F, size: 0x8, addend: 0x0, symName: __ZNKSt3__115basic_streambufIcNS_11char_traitsIcEEE5ebackB8ne180100Ev, symObjAddr: 0x3BBA0, symBinAddr: 0x100049838, symSize: 0x138 }
  - { offset: 0x22774, size: 0x8, addend: 0x0, symName: __ZNKSt3__115basic_streambufIcNS_11char_traitsIcEEE5egptrB8ne180100Ev, symObjAddr: 0x3BCD8, symBinAddr: 0x100049970, symSize: 0x138 }
  - { offset: 0x22798, size: 0x8, addend: 0x0, symName: __ZNSt3__117basic_string_viewIcNS_11char_traitsIcEEEC1B8ne180100Ev, symObjAddr: 0x3BE10, symBinAddr: 0x100049AA8, symSize: 0x78 }
  - { offset: 0x227C0, size: 0x8, addend: 0x0, symName: __ZNSt3__117basic_string_viewIcNS_11char_traitsIcEEEC2B8ne180100IPcS5_EET_T0_, symObjAddr: 0x3BE88, symBinAddr: 0x100049B20, symSize: 0x11C }
  - { offset: 0x22818, size: 0x8, addend: 0x0, symName: __ZNSt3__117basic_string_viewIcNS_11char_traitsIcEEEC2B8ne180100Ev, symObjAddr: 0x3BFC8, symBinAddr: 0x100049C60, symSize: 0xF0 }
  - { offset: 0x22840, size: 0x8, addend: 0x0, symName: __ZNSt3__112basic_stringIcNS_11char_traitsIcEENS_9allocatorIcEEEC2INS_17basic_string_viewIcS2_EELi0EEERKT_RKS4_, symObjAddr: 0x3C0B8, symBinAddr: 0x100049D50, symSize: 0x2DC }
  - { offset: 0x228B9, size: 0x8, addend: 0x0, symName: __ZNSt3__117__compressed_pairINS_12basic_stringIcNS_11char_traitsIcEENS_9allocatorIcEEE5__repES5_EC1B8ne180100INS_18__default_init_tagERKS5_EEOT_OT0_, symObjAddr: 0x3C394, symBinAddr: 0x10004A02C, symSize: 0x88 }
  - { offset: 0x2290F, size: 0x8, addend: 0x0, symName: __ZNSt3__117__compressed_pairINS_12basic_stringIcNS_11char_traitsIcEENS_9allocatorIcEEE5__repES5_EC2B8ne180100INS_18__default_init_tagERKS5_EEOT_OT0_, symObjAddr: 0x3C41C, symBinAddr: 0x10004A0B4, symSize: 0x124 }
  - { offset: 0x22965, size: 0x8, addend: 0x0, symName: __ZNSt3__122__compressed_pair_elemINS_9allocatorIcEELi1ELb1EEC2B8ne180100IRKS2_vEEOT_, symObjAddr: 0x3C540, symBinAddr: 0x10004A1D8, symSize: 0x58 }
  - { offset: 0x229A6, size: 0x8, addend: 0x0, symName: __ZNKSt3__112basic_stringIcNS_11char_traitsIcEENS_9allocatorIcEEE7__allocB8ne180100Ev, symObjAddr: 0x3C598, symBinAddr: 0x10004A230, symSize: 0xDC }
  - { offset: 0x229CB, size: 0x8, addend: 0x0, symName: __ZNKSt3__117__compressed_pairINS_12basic_stringIcNS_11char_traitsIcEENS_9allocatorIcEEE5__repES5_E6secondB8ne180100Ev, symObjAddr: 0x3C674, symBinAddr: 0x10004A30C, symSize: 0x108 }
  - { offset: 0x229F0, size: 0x8, addend: 0x0, symName: __ZNKSt3__122__compressed_pair_elemINS_9allocatorIcEELi1ELb1EE5__getB8ne180100Ev, symObjAddr: 0x3C77C, symBinAddr: 0x10004A414, symSize: 0x74 }
...
